LIBRARY "sound.dll"
EXPORTS
    ??0CSound@@AAE@ABV0@@Z @1
    ??0CSound@@QAE@XZ @2
    ??0CSoundEnumDevices@@QAE@ABV0@@Z @3
    ??0CSoundEnumDevices@@QAE@XZ @4
    ??0CSoundInterface@@QAE@ABV0@@Z @5
    ??0CSoundInterface@@QAE@PAUIDirectSound8@@PAUIDirectSound3DListener@@@Z @6
    ??0CSoundInterface@@QAE@XZ @7
    ??0CSoundListener@@QAE@PAUIDirectSound3DListener@@@Z @8
    ??0CSoundStream@@QAE@XZ @9
    ??0CSoundWavFile@@QAE@XZ @10
    ??0CStreamOggDecoder@@QAE@ABV0@@Z @11
    ??0CStreamOggDecoder@@QAE@XZ @12
    ??0CStreamWAVDecoder@@QAE@ABV0@@Z @13
    ??0CStreamWAVDecoder@@QAE@XZ @14
    ??0ISoundStreamDecoder@@QAE@ABV0@@Z @15
    ??0ISoundStreamDecoder@@QAE@XZ @16
    ??1CSound@@QAE@XZ @17
    ??1CSoundEnumDevices@@QAE@XZ @18
    ??1CSoundInterface@@UAE@XZ @19
    ??1CSoundStream@@QAE@XZ @20
    ??1CSoundWavFile@@QAE@XZ @21
    ??1CStreamOggDecoder@@UAE@XZ @22
    ??1CStreamWAVDecoder@@UAE@XZ @23
    ??1ISoundStreamDecoder@@UAE@XZ @24
    ??4CSound@@AAEXABV0@@Z @25
    ??4CSoundEnumDevices@@QAEAAV0@ABV0@@Z @26
    ??4CSoundInterface@@QAEAAV0@ABV0@@Z @27
    ??4CSoundListener@@QAEAAV0@ABV0@@Z @28
    ??4CSoundStream@@QAEAAV0@ABV0@@Z @29
    ??4CSoundWavFile@@QAEAAV0@ABV0@@Z @30
    ??4CStreamOggDecoder@@QAEAAV0@ABV0@@Z @31
    ??4CStreamWAVDecoder@@QAEAAV0@ABV0@@Z @32
    ??4ISoundStreamDecoder@@QAEAAV0@ABV0@@Z @33
    ??_7CSound@@6B@ @34
    ??_7CSoundInterface@@6B@ @35
    ??_7CStreamOggDecoder@@6B@ @36
    ??_7CStreamWAVDecoder@@6B@ @37
    ??_7ISoundStreamDecoder@@6B@ @38
    ?AddDevice@CSoundEnumDevices@@AAEXPAU_GUID@@PBD1@Z @39
    ?Close@CSoundWavFile@@QAEXXZ @40
    ?CreateSoundBuffer@CSound@@AAEHPAEKPAUtWAVEFORMATEX@@K@Z @41
    ?CreateSoundBuffers@CSoundStream@@AAEHXZ @42
    ?DSEnumCallback@CSoundEnumDevices@@CGHPAU_GUID@@PBD1PAX@Z @43
    ?Decode@CStreamOggDecoder@@UAEHPAXHPAK@Z @44
    ?Decode@CStreamWAVDecoder@@UAEHPAXHPAK@Z @45
    ?End@CStreamOggDecoder@@UAEHXZ @46
    ?End@CStreamWAVDecoder@@UAEHXZ @47
    ?Enumerate@CSoundEnumDevices@@QAEHXZ @48
    ?FillBufferWithSound@CSoundStream@@AAEHXZ @49
    ?Get3DMode@CSound@@QBEKXZ @50
    ?GetActiveListener@CSoundInterface@@QBEPAVCSoundListener@@XZ @51
    ?GetAllParameters@CSound@@QBEHPAU_DS3DBUFFER@@@Z @52
    ?GetAllParameters@CSoundListener@@QBEHPAU_DS3DLISTENER@@@Z @53
    ?GetConeAngles@CSound@@QBEXPAK0@Z @54
    ?GetConeOrientation@CSound@@QBEXPAU_D3DVECTOR@@@Z @55
    ?GetConeOutsideVolume@CSound@@QBEHXZ @56
    ?GetDSFlag@CSound@@ABEKK@Z @57
    ?GetDSListener@CSoundInterface@@QBEPAUIDirectSound3DListener@@XZ @58
    ?GetDecoder@CSoundStream@@QBEPAVISoundStreamDecoder@@XZ @59
    ?GetDeviceCaps@CSoundEnumDevices@@QAEHIPAU_DSCAPS@@@Z @60
    ?GetDeviceGUID@CSoundEnumDevices@@QBE?AU_GUID@@H@Z @61
    ?GetDeviceName@CSoundEnumDevices@@QBEPBDH@Z @62
    ?GetDirectSound@CSoundInterface@@QBEPAUIDirectSound8@@XZ @63
    ?GetDistanceFactor@CSoundInterface@@QBEMXZ @64
    ?GetDriverName@CSoundEnumDevices@@QBEPBDH@Z @65
    ?GetFormat@CSoundWavFile@@QBEPAUtWAVEFORMATEX@@XZ @66
    ?GetFrequency@CSound@@QBEKXZ @67
    ?GetInfo@CSound@@QBEPBU_DS3DBUFFER@@XZ @68
    ?GetMaxDistance@CSound@@QBEMXZ @69
    ?GetMinDistance@CSound@@QBEMXZ @70
    ?GetName@CSound@@QBEPBDXZ @71
    ?GetNumDevices@CSoundEnumDevices@@QBEHXZ @72
    ?GetOrientation@CSoundListener@@QBEXPAU_D3DVECTOR@@0@Z @73
    ?GetPan@CSound@@QBEMXZ @74
    ?GetPlayProgress@CSoundStream@@QBEHXZ @75
    ?GetPlayTimepos@CSound@@QBEMXZ @76
    ?GetPosition@CSound@@QBEXPAU_D3DVECTOR@@@Z @77
    ?GetPosition@CSoundListener@@QBEXPAU_D3DVECTOR@@@Z @78
    ?GetSize@CSoundWavFile@@QBEKXZ @79
    ?GetStreamFormat@CStreamOggDecoder@@UBEPBUtWAVEFORMATEX@@XZ @80
    ?GetStreamFormat@CStreamWAVDecoder@@UBEPBUtWAVEFORMATEX@@XZ @81
    ?GetStreamLength@CStreamOggDecoder@@UBEKXZ @82
    ?GetStreamLength@CStreamWAVDecoder@@UBEKXZ @83
    ?GetTimeLength@CSound@@QBEMXZ @84
    ?GetVelocity@CSound@@QBEXPAU_D3DVECTOR@@@Z @85
    ?GetVelocity@CSoundListener@@QBEXPAU_D3DVECTOR@@@Z @86
    ?GetVolume@CSound@@QBEMXZ @87
    ?GetVolume@CSoundStream@@QBEMXZ @88
    ?GetVolumeScale@CSoundStream@@QBEMXZ @89
    ?Initialize@CSoundInterface@@QAEHPAUHWND__@@HKK@Z @90
    ?Initialize@CSoundStream@@AAEHPAVISoundStreamDecoder@@KH@Z @91
    ?Initialize@CStreamOggDecoder@@QAEHPBD@Z @92
    ?Initialize@CStreamWAVDecoder@@QAEHPBD@Z @93
    ?IsFlag@CSoundInterface@@QBEHK@Z @94
    ?IsSoundPlaying@CSound@@QBEHXZ @95
    ?IsStillLoading@CSoundStream@@QBEHXZ @96
    ?IsStreamPlaying@CSoundStream@@QBEHXZ @97
    ?LoadSound@CSound@@QAEHPBDK@Z @98
    ?Open@CSoundWavFile@@QAEHPBD@Z @99
    ?Pause@CSoundStream@@QAEHXZ @100
    ?Play@CSound@@UAEHH@Z @101
    ?Play@CSoundStream@@QAEHH@Z @102
    ?PlayEx@CSoundStream@@QAEHMH@Z @103
    ?PreRelease@CSoundStream@@AAEXXZ @104
    ?Read@CSoundWavFile@@QAEHPAEK@Z @105
    ?ReadAll@CSoundWavFile@@QAEHPAE@Z @106
    ?ReadMMIO@CSoundWavFile@@AAEHXZ @107
    ?Release@CSound@@IAEXXZ @108
    ?Release@CSoundStream@@IAEXXZ @109
    ?ResetFile@CSoundWavFile@@QAEHXZ @110
    ?ResetFrequency@CSound@@QAEXXZ @111
    ?ResetPosition@CStreamOggDecoder@@UAEHXZ @112
    ?ResetPosition@CStreamWAVDecoder@@UAEHXZ @113
    ?RestoreLostBuffer@CSound@@AAEHXZ @114
    ?RestoreLostBuffer@CSoundStream@@AAEHXZ @115
    ?Resume@CSoundStream@@QAEHXZ @116
    ?Rewind@CSound@@UAEHXZ @117
    ?Rewind@CSoundStream@@QAEHXZ @118
    ?SI_Close@@YAXXZ @119
    ?SI_CreateInterface@@YAPAVCSoundInterface@@PAUHWND__@@HKK@Z @120
    ?SI_CreateInterface@@YAPAVCSoundInterface@@PAUIDirectSound8@@PAUIDirectSound3DListener@@@Z @121
    ?SI_Error@@YAXPBDZZ @122
    ?SI_GetHardwareMixing@@YA_NXZ @123
    ?SI_GetInterface@@YAPAVCSoundInterface@@XZ @124
    ?SI_GetMessageFunc@@YAXPAP6GXPBD@Z1@Z @125
    ?SI_GetStreamVolume@@YAHXZ @126
    ?SI_Log@@YAXPBDZZ @127
    ?SI_SetHardwareMixing@@YAX_N@Z @128
    ?SI_SetLogFile@@YAXPBD@Z @129
    ?SI_SetMessageFunc@@YAXP6GXPBD@Z1@Z @130
    ?SI_SetStreamVolume@@YAXH@Z @131
    ?SI_StreamCreateFile@@YAKPBDK@Z @132
    ?SI_StreamFree@@YAXK@Z @133
    ?SI_StreamPause@@YAKK@Z @134
    ?SI_StreamPlay@@YAKKK@Z @135
    ?SI_StreamResume@@YAKK@Z @136
    ?SI_StreamStop@@YAXK@Z @137
    ?SeekTime@CSoundWavFile@@QAEHM@Z @138
    ?SeekTime@CStreamOggDecoder@@UAEHM@Z @139
    ?SeekTime@CStreamWAVDecoder@@UAEHM@Z @140
    ?SeekToTime@CSoundStream@@QAEHM@Z @141
    ?Set3DMode@CSound@@QAEHKH@Z @142
    ?SetActive@CSoundListener@@QAEHXZ @143
    ?SetActiveListener@CSoundInterface@@QAEHPAVCSoundListener@@@Z @144
    ?SetAllParameters@CSound@@QAEHPBU_DS3DBUFFER@@H@Z @145
    ?SetAllParameters@CSoundListener@@QAEHPAU_DS3DLISTENER@@H@Z @146
    ?SetConeAngles@CSound@@QAEHKKH@Z @147
    ?SetConeOrientation@CSound@@QAEHABU_D3DVECTOR@@H@Z @148
    ?SetConeOrientation@CSound@@QAEHMMMH@Z @149
    ?SetConeOutsideVolume@CSound@@QAEHHH@Z @150
    ?SetDecodeProc@CSoundStream@@QAEXP6IHPAV1@PAX@Z1@Z @151
    ?SetDecodeSignal@CSoundStream@@QAEXK@Z @152
    ?SetDecodeSignal@CSoundStream@@QAEXM@Z @153
    ?SetDefaults@CSound@@AAEXXZ @154
    ?SetDefaults@CSoundListener@@AAEXXZ @155
    ?SetDistanceFactor@CSoundInterface@@QAEHM@Z @156
    ?SetFrequency@CSound@@QAEHK@Z @157
    ?SetMinMaxDistance@CSound@@QAEHMMH@Z @158
    ?SetName@CSound@@IAEXPBD@Z @159
    ?SetOrientation@CSoundListener@@QAEHABU_D3DVECTOR@@0H@Z @160
    ?SetPan@CSound@@QAEHM@Z @161
    ?SetPlayProc@CSoundStream@@QAEXP6IHPAV1@PAX@Z1@Z @162
    ?SetPlayProgress@CSoundStream@@QAEXK@Z @163
    ?SetPlaySignal@CSoundStream@@QAEXK@Z @164
    ?SetPlaySignal@CSoundStream@@QAEXM@Z @165
    ?SetPlayTimepos@CSound@@QAEXM@Z @166
    ?SetPosition@CSound@@QAEHABU_D3DVECTOR@@H@Z @167
    ?SetPosition@CSound@@QAEHMMMH@Z @168
    ?SetPosition@CSoundListener@@QAEHABU_D3DVECTOR@@H@Z @169
    ?SetPosition@CSoundListener@@QAEHMMMH@Z @170
    ?SetPrimaryFormat@CSoundInterface@@IAEHKK@Z @171
    ?SetVelocity@CSound@@QAEHABU_D3DVECTOR@@H@Z @172
    ?SetVelocity@CSound@@QAEHMMMH@Z @173
    ?SetVelocity@CSoundListener@@QAEHABU_D3DVECTOR@@H@Z @174
    ?SetVelocity@CSoundListener@@QAEHMMMH@Z @175
    ?SetVolume@CSound@@QAEHM@Z @176
    ?SetVolume@CSoundStream@@QAEHM@Z @177
    ?SetVolumeScale@CSoundStream@@QAEXM@Z @178
    ?Start@CStreamOggDecoder@@UAEHXZ @179
    ?Start@CStreamWAVDecoder@@UAEHXZ @180
    ?StartStreamFile@CSoundStream@@QAEHPBDHK@Z @181
    ?Stop@CSound@@UAEXXZ @182
    ?Stop@CSoundStream@@QAEXXZ @183
    ?StreamThread@CSoundStream@@CGKPAX@Z @184
    ?UpdateBuffer@CSoundStream@@IAEHXZ @185
    ?UpdateSettings@CSoundInterface@@QAEHXZ @186
