; ======================================================================================================================
; FUNC 0x00441990 sub_441990 size=304 segment=.text
; TYPE: int __stdcall(size_t Size)
; STRINGS:
;   0x0053CE74 '..\\ShareClientSeverCode\\config.cpp'
; ----------------------------------------------------------------------------------------------------------------------

loc_441990: ; preds= succs=loc_4419B8
  0x00441990    8b 44 24 04                                      mov     eax, [esp+Size]
  0x00441994    55                                               push    ebp
  0x00441995    8b e9                                            mov     ebp, ecx
  0x00441997    56                                               push    esi
  0x00441998    8b d5                                            mov     edx, ebp
  0x0044199A    57                                               push    edi
  0x0044199B    c7 05 18 c6 74 04 00 00 00 00                    mov     Size, 0    ; data_refs=[0x0474C618]
  0x004419A5    c7 05 00 1c 86 00 00 dc 6f 00                    mov     Str1, offset byte_6FDC00    ; data_refs=[0x006FDC00,0x00861C00]
  0x004419AF    c6 05 00 dc 6f 00 00                             mov     byte_6FDC00, 0    ; data_refs=[0x006FDC00]
  0x004419B6    2b d0                                            sub     edx, eax

loc_4419B8: ; preds=loc_441990,loc_4419B8 succs=loc_4419C2,loc_4419B8
  0x004419B8    8a 08                                            mov     cl, [eax]
  0x004419BA    88 0c 02                                         mov     [edx+eax], cl
  0x004419BD    40                                               inc     eax
  0x004419BE    84 c9                                            test    cl, cl
  0x004419C0    75 f6                                            jnz     short loc_4419B8    ; code_refs=[0x004419B8]

loc_4419C2: ; preds=loc_4419B8 succs=loc_4419E4,loc_441AA0
  0x004419C2    8b 3d 00 1c 86 00                                mov     edi, Str1    ; data_refs=[0x00861C00]
  0x004419C8    6a 00                                            push    0
  0x004419CA    68 00 80 00 00                                   push    8000h
  0x004419CF    55                                               push    ebp
  0x004419D0    ff 15 c0 c3 53 00                                call    ds:?_open@@YAHPBDHH@Z; _open(char const *,int,int)    ; code_refs=[0x0053C3C0] data_refs=[0x0053C3C0]
  0x004419D6    8b f0                                            mov     esi, eax
  0x004419D8    83 c4 0c                                         add     esp, 0Ch
  0x004419DB    83 fe ff                                         cmp     esi, 0FFFFFFFFh
  0x004419DE    0f 84 bc 00 00 00                                jz      loc_441AA0    ; code_refs=[0x00441AA0]

loc_4419E4: ; preds=loc_4419C2 succs=loc_441A19,loc_441AA8
  0x004419E4    68 ff 3f 16 00                                   push    163FFFh; MaxCharCount
  0x004419E9    57                                               push    edi; DstBuf
  0x004419EA    56                                               push    esi; FileHandle
  0x004419EB    ff 15 bc c3 53 00                                call    ds:_read    ; code_refs=[0x0053C3BC] data_refs=[0x0053C3BC]
  0x004419F1    56                                               push    esi; FileHandle
  0x004419F2    a3 18 c6 74 04                                   mov     Size, eax    ; data_refs=[0x0474C618]
  0x004419F7    ff 15 b8 c3 53 00                                call    ds:_close    ; code_refs=[0x0053C3B8] data_refs=[0x0053C3B8]
  0x004419FD    8b 15 18 c6 74 04                                mov     edx, Size    ; data_refs=[0x0474C618]
  0x00441A03    8b 0d 00 1c 86 00                                mov     ecx, Str1    ; data_refs=[0x00861C00]
  0x00441A09    83 c4 10                                         add     esp, 10h
  0x00441A0C    e8 7f c8 07 00                                   call    sub_4BE290    ; code_refs=[0x004BE290]
  0x00441A11    84 c0                                            test    al, al
  0x00441A13    0f 84 8f 00 00 00                                jz      loc_441AA8    ; code_refs=[0x00441AA8]

loc_441A19: ; preds=loc_4419E4 succs=loc_441A5F,loc_441A78
  0x00441A19    ba c5 00 00 00                                   mov     edx, 0C5h
  0x00441A1E    b9 74 ce 53 00                                   mov     ecx, offset aShareclientsev_11; "..\\ShareClientSeverCode\\config.cpp"    ; data_refs=[0x0053CE74]
  0x00441A23    c7 44 24 10 ff 3f 16 00                          mov     [esp+0Ch+Size], 163FFFh
  0x00441A2B    e8 20 94 0e 00                                   call    sub_52AE50    ; code_refs=[0x0052AE50]
  0x00441A30    8b 44 24 10                                      mov     eax, [esp+0Ch+Size]
  0x00441A34    40                                               inc     eax
  0x00441A35    50                                               push    eax; Size
  0x00441A36    e8 f5 a0 0e 00                                   call    sub_52BB30    ; code_refs=[0x0052BB30]
  0x00441A3B    8b 0d 18 c6 74 04                                mov     ecx, Size    ; data_refs=[0x0474C618]
  0x00441A41    8b 15 00 1c 86 00                                mov     edx, Str1    ; data_refs=[0x00861C00]
  0x00441A47    83 c4 04                                         add     esp, 4
  0x00441A4A    51                                               push    ecx; int
  0x00441A4B    8b f0                                            mov     esi, eax
  0x00441A4D    52                                               push    edx; Str1
  0x00441A4E    8d 54 24 18                                      lea     edx, [esp+14h+Size]
  0x00441A52    8b ce                                            mov     ecx, esi
  0x00441A54    e8 57 c8 07 00                                   call    sub_4BE2B0    ; code_refs=[0x004BE2B0]
  0x00441A59    8b f8                                            mov     edi, eax
  0x00441A5B    85 ff                                            test    edi, edi
  0x00441A5D    75 19                                            jnz     short loc_441A78    ; code_refs=[0x00441A78]

loc_441A5F: ; preds=loc_441A19 succs=loc_441A78
  0x00441A5F    8b 44 24 10                                      mov     eax, [esp+0Ch+Size]
  0x00441A63    50                                               push    eax; Size
  0x00441A64    a3 18 c6 74 04                                   mov     Size, eax    ; data_refs=[0x0474C618]
  0x00441A69    a1 00 1c 86 00                                   mov     eax, Str1    ; data_refs=[0x00861C00]
  0x00441A6E    56                                               push    esi; Src
  0x00441A6F    50                                               push    eax; void *
  0x00441A70    e8 1f ca 0e 00                                   call    memcpy    ; code_refs=[0x0052E494]
  0x00441A75    83 c4 0c                                         add     esp, 0Ch

loc_441A78: ; preds=loc_441A19,loc_441A5F succs=loc_441A94,loc_441AA8
  0x00441A78    ba ce 00 00 00                                   mov     edx, 0CEh
  0x00441A7D    b9 74 ce 53 00                                   mov     ecx, offset aShareclientsev_11; "..\\ShareClientSeverCode\\config.cpp"    ; data_refs=[0x0053CE74]
  0x00441A82    e8 c9 93 0e 00                                   call    sub_52AE50    ; code_refs=[0x0052AE50]
  0x00441A87    56                                               push    esi
  0x00441A88    e8 23 a0 0e 00                                   call    sub_52BAB0    ; code_refs=[0x0052BAB0]
  0x00441A8D    83 c4 04                                         add     esp, 4
  0x00441A90    85 ff                                            test    edi, edi
  0x00441A92    74 14                                            jz      short loc_441AA8    ; code_refs=[0x00441AA8]

loc_441A94: ; preds=loc_441A78 succs=loc_441AA0
  0x00441A94    68 6a ce 53 00                                   push    offset name    ; data_refs=[0x0053CE6A]
  0x00441A99    8b cd                                            mov     ecx, ebp
  0x00441A9B    e8 60 fc ff ff                                   call    sub_441700    ; code_refs=[0x00441700]

loc_441AA0: ; preds=loc_4419C2,loc_441A94 succs=
  0x00441AA0    5f                                               pop     edi
  0x00441AA1    5e                                               pop     esi
  0x00441AA2    32 c0                                            xor     al, al
  0x00441AA4    5d                                               pop     ebp
  0x00441AA5    c2 04 00                                         retn    4

loc_441AA8: ; preds=loc_4419E4,loc_441A78 succs=
  0x00441AA8    8b 0d 18 c6 74 04                                mov     ecx, Size    ; data_refs=[0x0474C618]
  0x00441AAE    8b 15 00 1c 86 00                                mov     edx, Str1    ; data_refs=[0x00861C00]
  0x00441AB4    5f                                               pop     edi
  0x00441AB5    5e                                               pop     esi
  0x00441AB6    c6 04 0a 00                                      mov     byte ptr [edx+ecx], 0
  0x00441ABA    b0 01                                            mov     al, 1
  0x00441ABC    5d                                               pop     ebp
  0x00441ABD    c2 04 00                                         retn    4
; END_FUNC 0x00441990 sub_441990


; ======================================================================================================================
; FUNC 0x00441AC0 sub_441AC0 size=168 segment=.text
; TYPE: int __thiscall(char *FileName, char)
; STRINGS:
;   0x0053CE74 '..\\ShareClientSeverCode\\config.cpp'
; ----------------------------------------------------------------------------------------------------------------------

loc_441AC0: ; preds= succs=loc_441AC9,loc_441AD0
  0x00441AC0    51                                               push    ecx
  0x00441AC1    57                                               push    edi
  0x00441AC2    8b f9                                            mov     edi, ecx
  0x00441AC4    80 3f 00                                         cmp     byte ptr [edi], 0
  0x00441AC7    75 07                                            jnz     short loc_441AD0    ; code_refs=[0x00441AD0]

loc_441AC9: ; preds=loc_441AC0 succs=
  0x00441AC9    32 c0                                            xor     al, al
  0x00441ACB    5f                                               pop     edi
  0x00441ACC    59                                               pop     ecx
  0x00441ACD    c2 04 00                                         retn    4

loc_441AD0: ; preds=loc_441AC0 succs=loc_441AE1,loc_441B02
  0x00441AD0    80 7c 24 0c 00                                   cmp     [esp+8+arg_0], 0
  0x00441AD5    53                                               push    ebx
  0x00441AD6    56                                               push    esi
  0x00441AD7    c7 44 24 0c ff 3f 16 00                          mov     [esp+10h+MaxCharCount], 163FFFh
  0x00441ADF    74 21                                            jz      short loc_441B02    ; code_refs=[0x00441B02]

loc_441AE1: ; preds=loc_441AD0 succs=loc_441B04
  0x00441AE1    ba e2 00 00 00                                   mov     edx, 0E2h
  0x00441AE6    b9 74 ce 53 00                                   mov     ecx, offset aShareclientsev_11; "..\\ShareClientSeverCode\\config.cpp"    ; data_refs=[0x0053CE74]
  0x00441AEB    e8 60 93 0e 00                                   call    sub_52AE50    ; code_refs=[0x0052AE50]
  0x00441AF0    8b 44 24 0c                                      mov     eax, [esp+10h+MaxCharCount]
  0x00441AF4    40                                               inc     eax
  0x00441AF5    50                                               push    eax; Size
  0x00441AF6    e8 35 a0 0e 00                                   call    sub_52BB30    ; code_refs=[0x0052BB30]
  0x00441AFB    83 c4 04                                         add     esp, 4
  0x00441AFE    8b f0                                            mov     esi, eax
  0x00441B00    eb 02                                            jmp     short loc_441B04    ; code_refs=[0x00441B04]

loc_441B02: ; preds=loc_441AD0 succs=loc_441B04
  0x00441B02    33 f6                                            xor     esi, esi

loc_441B04: ; preds=loc_441AE1,loc_441B02 succs=loc_441B0C,loc_441B1C
  0x00441B04    32 db                                            xor     bl, bl
  0x00441B06    38 5c 24 14                                      cmp     [esp+10h+arg_0], bl
  0x00441B0A    75 10                                            jnz     short loc_441B1C    ; code_refs=[0x00441B1C]

loc_441B0C: ; preds=loc_441B04 succs=loc_441B3E
  0x00441B0C    8b 0d 18 c6 74 04                                mov     ecx, Size    ; data_refs=[0x0474C618]
  0x00441B12    8b 15 00 1c 86 00                                mov     edx, Str1    ; data_refs=[0x00861C00]
  0x00441B18    51                                               push    ecx
  0x00441B19    52                                               push    edx
  0x00441B1A    eb 22                                            jmp     short loc_441B3E    ; code_refs=[0x00441B3E]

loc_441B1C: ; preds=loc_441B04 succs=loc_441B38,loc_441B47
  0x00441B1C    a1 18 c6 74 04                                   mov     eax, Size    ; data_refs=[0x0474C618]
  0x00441B21    8b 0d 00 1c 86 00                                mov     ecx, Str1    ; data_refs=[0x00861C00]
  0x00441B27    50                                               push    eax
  0x00441B28    51                                               push    ecx
  0x00441B29    8d 54 24 14                                      lea     edx, [esp+18h+MaxCharCount]
  0x00441B2D    8b ce                                            mov     ecx, esi
  0x00441B2F    e8 0c c8 07 00                                   call    sub_4BE340    ; code_refs=[0x004BE340]
  0x00441B34    85 c0                                            test    eax, eax
  0x00441B36    75 0f                                            jnz     short loc_441B47    ; code_refs=[0x00441B47]

loc_441B38: ; preds=loc_441B1C succs=loc_441B3E
  0x00441B38    8b 54 24 0c                                      mov     edx, [esp+10h+MaxCharCount]
  0x00441B3C    52                                               push    edx; MaxCharCount
  0x00441B3D    56                                               push    esi; Buf

loc_441B3E: ; preds=loc_441B0C,loc_441B38 succs=loc_441B47
  0x00441B3E    8b cf                                            mov     ecx, edi; FileName
  0x00441B40    e8 3b fb ff ff                                   call    sub_441680    ; code_refs=[0x00441680]
  0x00441B45    8a d8                                            mov     bl, al

loc_441B47: ; preds=loc_441B1C,loc_441B3E succs=
  0x00441B47    ba ea 00 00 00                                   mov     edx, 0EAh
  0x00441B4C    b9 74 ce 53 00                                   mov     ecx, offset aShareclientsev_11; "..\\ShareClientSeverCode\\config.cpp"    ; data_refs=[0x0053CE74]
  0x00441B51    e8 fa 92 0e 00                                   call    sub_52AE50    ; code_refs=[0x0052AE50]
  0x00441B56    56                                               push    esi
  0x00441B57    e8 54 9f 0e 00                                   call    sub_52BAB0    ; code_refs=[0x0052BAB0]
  0x00441B5C    83 c4 04                                         add     esp, 4
  0x00441B5F    5e                                               pop     esi
  0x00441B60    8a c3                                            mov     al, bl
  0x00441B62    5b                                               pop     ebx
  0x00441B63    5f                                               pop     edi
  0x00441B64    59                                               pop     ecx
  0x00441B65    c2 04 00                                         retn    4
; END_FUNC 0x00441AC0 sub_441AC0


; ======================================================================================================================
; FUNC 0x0045E000 sub_45E000 size=103 segment=.text
; STRINGS:
;   0x0053DB0C '..\\ShareClientSeverCode\\CheckFiles.cpp'
; ----------------------------------------------------------------------------------------------------------------------

loc_45E000: ; preds= succs=loc_45E010,loc_45E030
  0x0045E000    56                                               push    esi
  0x0045E001    8b f1                                            mov     esi, ecx
  0x0045E003    8b 86 10 04 00 00                                mov     eax, [esi+410h]
  0x0045E009    57                                               push    edi
  0x0045E00A    33 ff                                            xor     edi, edi
  0x0045E00C    3b c7                                            cmp     eax, edi
  0x0045E00E    74 20                                            jz      short loc_45E030    ; code_refs=[0x0045E030]

loc_45E010: ; preds=loc_45E000 succs=loc_45E01D,loc_45E02A
  0x0045E010    6a ff                                            push    0FFFFFFFFh; dwExitCode
  0x0045E012    50                                               push    eax; hThread
  0x0045E013    ff 15 8c c0 53 00                                call    ds:TerminateThread    ; code_refs=[0x0053C08C] data_refs=[0x0053C08C]
  0x0045E019    85 c0                                            test    eax, eax
  0x0045E01B    75 0d                                            jnz     short loc_45E02A    ; code_refs=[0x0045E02A]

loc_45E01D: ; preds=loc_45E010 succs=
  0x0045E01D    8d 57 23                                         lea     edx, [edi+23h]
  0x0045E020    b9 0c db 53 00                                   mov     ecx, offset aShareclientsev_62; "..\\ShareClientSeverCode\\CheckFiles.cp"...    ; data_refs=[0x0053DB0C]
  0x0045E025    e8 b6 05 06 00                                   call    sub_4BE5E0    ; code_refs=[0x004BE5E0]

loc_45E02A: ; preds=loc_45E010 succs=loc_45E030
  0x0045E02A    89 be 10 04 00 00                                mov     [esi+410h], edi

loc_45E030: ; preds=loc_45E000,loc_45E02A succs=
  0x0045E030    89 be 04 04 00 00                                mov     [esi+404h], edi
  0x0045E036    89 be 0c 04 00 00                                mov     [esi+40Ch], edi
  0x0045E03C    89 be a4 37 00 00                                mov     [esi+37A4h], edi
  0x0045E042    89 be a8 37 00 00                                mov     [esi+37A8h], edi
  0x0045E048    89 be ac 37 00 00                                mov     [esi+37ACh], edi
  0x0045E04E    5f                                               pop     edi
  0x0045E04F    c7 86 b0 37 00 00 01 00 00 00                    mov     dword ptr [esi+37B0h], 1
  0x0045E059    c7 86 b4 37 00 00 ff ff ff ff                    mov     dword ptr [esi+37B4h], 0FFFFFFFFh
  0x0045E063    33 c0                                            xor     eax, eax
  0x0045E065    5e                                               pop     esi
  0x0045E066    c3                                               retn
; END_FUNC 0x0045E000 sub_45E000


; ======================================================================================================================
; FUNC 0x0045E3A0 sub_45E3A0 size=330 segment=.text
; STRINGS:
;   0x00564490 'N'
;   0x0053DB34 'filelist.dat'
; ----------------------------------------------------------------------------------------------------------------------

loc_45E3A0: ; preds= succs=loc_45E3D3
  0x0045E3A0    81 ec 30 03 00 00                                sub     esp, 330h
  0x0045E3A6    a1 90 44 56 00                                   mov     eax, dword_564490    ; data_refs=[0x00564490]
  0x0045E3AB    33 c4                                            xor     eax, esp
  0x0045E3AD    89 84 24 2c 03 00 00                             mov     [esp+330h+var_4], eax
  0x0045E3B4    8b 84 24 38 03 00 00                             mov     eax, [esp+330h+arg_4]
  0x0045E3BB    53                                               push    ebx
  0x0045E3BC    55                                               push    ebp
  0x0045E3BD    56                                               push    esi
  0x0045E3BE    89 4c 24 0c                                      mov     [esp+33Ch+var_330], ecx
  0x0045E3C2    8b 8c 24 40 03 00 00                             mov     ecx, [esp+33Ch+arg_0]
  0x0045E3C9    8d b4 24 38 01 00 00                             lea     esi, [esp+33Ch+FileName]
  0x0045E3D0    57                                               push    edi
  0x0045E3D1    2b f1                                            sub     esi, ecx

loc_45E3D3: ; preds=loc_45E3A0,loc_45E3D3 succs=loc_45E3DD,loc_45E3D3
  0x0045E3D3    8a 11                                            mov     dl, [ecx]
  0x0045E3D5    88 14 0e                                         mov     [esi+ecx], dl
  0x0045E3D8    41                                               inc     ecx
  0x0045E3D9    84 d2                                            test    dl, dl
  0x0045E3DB    75 f6                                            jnz     short loc_45E3D3    ; code_refs=[0x0045E3D3]

loc_45E3DD: ; preds=loc_45E3D3 succs=loc_45E3E0
  0x0045E3DD    8b d0                                            mov     edx, eax
  0x0045E3DF    90                                               nop

loc_45E3E0: ; preds=loc_45E3DD,loc_45E3E0 succs=loc_45E3E7,loc_45E3E0
  0x0045E3E0    8a 08                                            mov     cl, [eax]
  0x0045E3E2    40                                               inc     eax
  0x0045E3E3    84 c9                                            test    cl, cl
  0x0045E3E5    75 f9                                            jnz     short loc_45E3E0    ; code_refs=[0x0045E3E0]

loc_45E3E7: ; preds=loc_45E3E0 succs=loc_45E3F1
  0x0045E3E7    8d bc 24 3c 01 00 00                             lea     edi, [esp+340h+FileName]
  0x0045E3EE    2b c2                                            sub     eax, edx
  0x0045E3F0    4f                                               dec     edi

loc_45E3F1: ; preds=loc_45E3E7,loc_45E3F1 succs=loc_45E3F9,loc_45E3F1
  0x0045E3F1    8a 4f 01                                         mov     cl, [edi+1]
  0x0045E3F4    47                                               inc     edi
  0x0045E3F5    84 c9                                            test    cl, cl
  0x0045E3F7    75 f8                                            jnz     short loc_45E3F1    ; code_refs=[0x0045E3F1]

loc_45E3F9: ; preds=loc_45E3F1 succs=loc_45E42C,loc_45E4C3
  0x0045E3F9    8b c8                                            mov     ecx, eax
  0x0045E3FB    c1 e9 02                                         shr     ecx, 2
  0x0045E3FE    8b f2                                            mov     esi, edx
  0x0045E400    f3 a5                                            rep movsd
  0x0045E402    8b c8                                            mov     ecx, eax
  0x0045E404    83 e1 03                                         and     ecx, 3
  0x0045E407    8d 44 24 14                                      lea     eax, [esp+340h+FindData]
  0x0045E40B    f3 a4                                            rep movsb
  0x0045E40D    50                                               push    eax; FindData
  0x0045E40E    8d 8c 24 40 01 00 00                             lea     ecx, [esp+344h+FileName]
  0x0045E415    51                                               push    ecx; FileName
  0x0045E416    ff 15 3c c4 53 00                                call    ds:_findfirst64i32    ; code_refs=[0x0053C43C] data_refs=[0x0053C43C]
  0x0045E41C    8b d8                                            mov     ebx, eax
  0x0045E41E    83 c4 08                                         add     esp, 8
  0x0045E421    33 ed                                            xor     ebp, ebp
  0x0045E423    83 fb ff                                         cmp     ebx, 0FFFFFFFFh
  0x0045E426    0f 84 97 00 00 00                                jz      loc_45E4C3    ; code_refs=[0x0045E4C3]

loc_45E42C: ; preds=loc_45E3F9 succs=loc_45E430
  0x0045E42C    8d 64 24 00                                      lea     esp, [esp+0]

loc_45E430: ; preds=loc_45E42C,loc_45E4AC succs=loc_45E437,loc_45E4AC
  0x0045E430    f6 44 24 14 10                                   test    byte ptr [esp+340h+FindData.attrib], 10h    ; data_refs=[0x000426F9]
  0x0045E435    75 75                                            jnz     short loc_45E4AC    ; code_refs=[0x0045E4AC]

loc_45E437: ; preds=loc_45E430 succs=loc_45E44E,loc_45E4AC
  0x0045E437    8d 54 24 38                                      lea     edx, [esp+340h+FindData.name]    ; data_refs=[0x000426FE]
  0x0045E43B    68 34 db 53 00                                   push    offset aFilelistDat; "filelist.dat"    ; data_refs=[0x0053DB34]
  0x0045E440    52                                               push    edx; String1
  0x0045E441    ff 15 b0 c3 53 00                                call    ds:_stricmp    ; code_refs=[0x0053C3B0] data_refs=[0x0053C3B0]
  0x0045E447    83 c4 08                                         add     esp, 8
  0x0045E44A    85 c0                                            test    eax, eax
  0x0045E44C    74 5e                                            jz      short loc_45E4AC    ; code_refs=[0x0045E4AC]

loc_45E44E: ; preds=loc_45E437 succs=loc_45E460
  0x0045E44E    8b 84 24 44 03 00 00                             mov     eax, [esp+340h+arg_0]
  0x0045E455    8d 94 24 3c 02 00 00                             lea     edx, [esp+340h+var_104]
  0x0045E45C    2b d0                                            sub     edx, eax
  0x0045E45E    8b ff                                            mov     edi, edi

loc_45E460: ; preds=loc_45E44E,loc_45E460 succs=loc_45E46A,loc_45E460
  0x0045E460    8a 08                                            mov     cl, [eax]
  0x0045E462    88 0c 02                                         mov     [edx+eax], cl
  0x0045E465    40                                               inc     eax
  0x0045E466    84 c9                                            test    cl, cl
  0x0045E468    75 f6                                            jnz     short loc_45E460    ; code_refs=[0x0045E460]

loc_45E46A: ; preds=loc_45E460 succs=loc_45E470
  0x0045E46A    8d 44 24 38                                      lea     eax, [esp+340h+FindData.name]    ; data_refs=[0x000426FE]
  0x0045E46E    8b d0                                            mov     edx, eax

loc_45E470: ; preds=loc_45E46A,loc_45E470 succs=loc_45E477,loc_45E470
  0x0045E470    8a 08                                            mov     cl, [eax]
  0x0045E472    40                                               inc     eax
  0x0045E473    84 c9                                            test    cl, cl
  0x0045E475    75 f9                                            jnz     short loc_45E470    ; code_refs=[0x0045E470]

loc_45E477: ; preds=loc_45E470 succs=loc_45E481
  0x0045E477    8d bc 24 3c 02 00 00                             lea     edi, [esp+340h+var_104]
  0x0045E47E    2b c2                                            sub     eax, edx
  0x0045E480    4f                                               dec     edi

loc_45E481: ; preds=loc_45E477,loc_45E481 succs=loc_45E489,loc_45E481
  0x0045E481    8a 4f 01                                         mov     cl, [edi+1]
  0x0045E484    47                                               inc     edi
  0x0045E485    84 c9                                            test    cl, cl
  0x0045E487    75 f8                                            jnz     short loc_45E481    ; code_refs=[0x0045E481]

loc_45E489: ; preds=loc_45E481 succs=loc_45E4AC
  0x0045E489    8b c8                                            mov     ecx, eax
  0x0045E48B    c1 e9 02                                         shr     ecx, 2
  0x0045E48E    8b f2                                            mov     esi, edx
  0x0045E490    f3 a5                                            rep movsd
  0x0045E492    8b c8                                            mov     ecx, eax
  0x0045E494    83 e1 03                                         and     ecx, 3
  0x0045E497    8d 84 24 3c 02 00 00                             lea     eax, [esp+340h+var_104]
  0x0045E49E    f3 a4                                            rep movsb
  0x0045E4A0    8b 4c 24 10                                      mov     ecx, [esp+340h+var_330]
  0x0045E4A4    50                                               push    eax
  0x0045E4A5    e8 26 fe ff ff                                   call    sub_45E2D0    ; code_refs=[0x0045E2D0]
  0x0045E4AA    03 e8                                            add     ebp, eax

loc_45E4AC: ; preds=loc_45E430,loc_45E437,loc_45E489 succs=loc_45E430,loc_45E4C3
  0x0045E4AC    8d 4c 24 14                                      lea     ecx, [esp+340h+FindData]
  0x0045E4B0    51                                               push    ecx; FindData
  0x0045E4B1    53                                               push    ebx; FindHandle
  0x0045E4B2    ff 15 38 c4 53 00                                call    ds:_findnext64i32    ; code_refs=[0x0053C438] data_refs=[0x0053C438]
  0x0045E4B8    83 c4 08                                         add     esp, 8
  0x0045E4BB    85 c0                                            test    eax, eax
  0x0045E4BD    0f 84 6d ff ff ff                                jz      loc_45E430    ; code_refs=[0x0045E430]

loc_45E4C3: ; preds=loc_45E3F9,loc_45E4AC succs=
  0x0045E4C3    53                                               push    ebx; FindHandle
  0x0045E4C4    ff 15 34 c4 53 00                                call    ds:_findclose    ; code_refs=[0x0053C434] data_refs=[0x0053C434]
  0x0045E4CA    8b 8c 24 40 03 00 00                             mov     ecx, [esp+344h+var_4]
  0x0045E4D1    83 c4 04                                         add     esp, 4
  0x0045E4D4    5f                                               pop     edi
  0x0045E4D5    5e                                               pop     esi
  0x0045E4D6    8b c5                                            mov     eax, ebp
  0x0045E4D8    5d                                               pop     ebp
  0x0045E4D9    5b                                               pop     ebx
  0x0045E4DA    33 cc                                            xor     ecx, esp
  0x0045E4DC    e8 bf ff 0c 00                                   call    sub_52E4A0    ; code_refs=[0x0052E4A0]
  0x0045E4E1    81 c4 30 03 00 00                                add     esp, 330h
  0x0045E4E7    c2 08 00                                         retn    8
; END_FUNC 0x0045E3A0 sub_45E3A0


; ======================================================================================================================
; FUNC 0x0045E4F0 sub_45E4F0 size=754 segment=.text
; STRINGS:
;   0x00564490 'N'
;   0x0053DB34 'filelist.dat'
; ----------------------------------------------------------------------------------------------------------------------

loc_45E4F0: ; preds= succs=loc_45E51D,loc_45E76A
  0x0045E4F0    81 ec 34 03 00 00                                sub     esp, 334h
  0x0045E4F6    a1 90 44 56 00                                   mov     eax, dword_564490    ; data_refs=[0x00564490]
  0x0045E4FB    33 c4                                            xor     eax, esp
  0x0045E4FD    89 84 24 30 03 00 00                             mov     [esp+334h+var_4], eax
  0x0045E504    8b 84 24 3c 03 00 00                             mov     eax, [esp+334h+arg_4]
  0x0045E50B    53                                               push    ebx
  0x0045E50C    55                                               push    ebp
  0x0045E50D    8b e9                                            mov     ebp, ecx
  0x0045E50F    33 db                                            xor     ebx, ebx
  0x0045E511    39 9d b4 37 00 00                                cmp     [ebp+37B4h], ebx
  0x0045E517    0f 8f 4d 02 00 00                                jg      loc_45E76A    ; code_refs=[0x0045E76A]

loc_45E51D: ; preds=loc_45E4F0 succs=loc_45E530
  0x0045E51D    8b 8c 24 40 03 00 00                             mov     ecx, [esp+33Ch+arg_0]
  0x0045E524    56                                               push    esi
  0x0045E525    8d b4 24 3c 02 00 00                             lea     esi, [esp+340h+FileName]
  0x0045E52C    2b f1                                            sub     esi, ecx
  0x0045E52E    8b ff                                            mov     edi, edi

loc_45E530: ; preds=loc_45E51D,loc_45E530 succs=loc_45E53A,loc_45E530
  0x0045E530    8a 11                                            mov     dl, [ecx]
  0x0045E532    88 14 0e                                         mov     [esi+ecx], dl
  0x0045E535    41                                               inc     ecx
  0x0045E536    3a d3                                            cmp     dl, bl
  0x0045E538    75 f6                                            jnz     short loc_45E530    ; code_refs=[0x0045E530]

loc_45E53A: ; preds=loc_45E530 succs=loc_45E540
  0x0045E53A    8b f0                                            mov     esi, eax
  0x0045E53C    8d 64 24 00                                      lea     esp, [esp+0]

loc_45E540: ; preds=loc_45E53A,loc_45E540 succs=loc_45E547,loc_45E540
  0x0045E540    8a 08                                            mov     cl, [eax]
  0x0045E542    40                                               inc     eax
  0x0045E543    3a cb                                            cmp     cl, bl
  0x0045E545    75 f9                                            jnz     short loc_45E540    ; code_refs=[0x0045E540]

loc_45E547: ; preds=loc_45E540 succs=loc_45E552
  0x0045E547    57                                               push    edi
  0x0045E548    8d bc 24 40 02 00 00                             lea     edi, [esp+344h+FileName]
  0x0045E54F    2b c6                                            sub     eax, esi
  0x0045E551    4f                                               dec     edi

loc_45E552: ; preds=loc_45E547,loc_45E552 succs=loc_45E55A,loc_45E552
  0x0045E552    8a 4f 01                                         mov     cl, [edi+1]
  0x0045E555    47                                               inc     edi
  0x0045E556    3a cb                                            cmp     cl, bl
  0x0045E558    75 f8                                            jnz     short loc_45E552    ; code_refs=[0x0045E552]

loc_45E55A: ; preds=loc_45E552 succs=loc_45E598,loc_45E75E
  0x0045E55A    8b c8                                            mov     ecx, eax
  0x0045E55C    c1 e9 02                                         shr     ecx, 2
  0x0045E55F    f3 a5                                            rep movsd
  0x0045E561    8b c8                                            mov     ecx, eax
  0x0045E563    83 e1 03                                         and     ecx, 3
  0x0045E566    8d 44 24 18                                      lea     eax, [esp+344h+FindData]
  0x0045E56A    f3 a4                                            rep movsb
  0x0045E56C    50                                               push    eax; FindData
  0x0045E56D    8d 8c 24 44 02 00 00                             lea     ecx, [esp+348h+FileName]
  0x0045E574    51                                               push    ecx; FileName
  0x0045E575    89 5c 24 18                                      mov     [esp+34Ch+var_334], ebx
  0x0045E579    ff 15 3c c4 53 00                                call    ds:_findfirst64i32    ; code_refs=[0x0053C43C] data_refs=[0x0053C43C]
  0x0045E57F    8b f0                                            mov     esi, eax
  0x0045E581    83 c4 08                                         add     esp, 8
  0x0045E584    89 74 24 14                                      mov     [esp+344h+var_330], esi
  0x0045E588    c6 85 b8 37 00 00 01                             mov     byte ptr [ebp+37B8h], 1
  0x0045E58F    83 fe ff                                         cmp     esi, 0FFFFFFFFh
  0x0045E592    0f 84 c6 01 00 00                                jz      loc_45E75E    ; code_refs=[0x0045E75E]

loc_45E598: ; preds=loc_45E55A succs=loc_45E5A0
  0x0045E598    eb 06                                            jmp     short loc_45E5A0    ; code_refs=[0x0045E5A0]

loc_45E5A0: ; preds=loc_45E598,loc_45E747 succs=loc_45E5AB,loc_45E747
  0x0045E5A0    f6 44 24 18 10                                   test    byte ptr [esp+344h+FindData.attrib], 10h    ; data_refs=[0x000426F9]
  0x0045E5A5    0f 85 9c 01 00 00                                jnz     loc_45E747    ; code_refs=[0x0045E747]

loc_45E5AB: ; preds=loc_45E5A0 succs=loc_45E5C6,loc_45E747
  0x0045E5AB    8d 54 24 3c                                      lea     edx, [esp+344h+FindData.name]    ; data_refs=[0x000426FE]
  0x0045E5AF    68 34 db 53 00                                   push    offset aFilelistDat; "filelist.dat"    ; data_refs=[0x0053DB34]
  0x0045E5B4    52                                               push    edx; String1
  0x0045E5B5    ff 15 b0 c3 53 00                                call    ds:_stricmp    ; code_refs=[0x0053C3B0] data_refs=[0x0053C3B0]
  0x0045E5BB    83 c4 08                                         add     esp, 8
  0x0045E5BE    85 c0                                            test    eax, eax
  0x0045E5C0    0f 84 81 01 00 00                                jz      loc_45E747    ; code_refs=[0x0045E747]

loc_45E5C6: ; preds=loc_45E5AB succs=loc_45E5D6
  0x0045E5C6    8b 84 24 48 03 00 00                             mov     eax, [esp+344h+arg_0]
  0x0045E5CD    8d 94 24 40 01 00 00                             lea     edx, [esp+344h+var_204]
  0x0045E5D4    2b d0                                            sub     edx, eax

loc_45E5D6: ; preds=loc_45E5C6,loc_45E5D6 succs=loc_45E5E0,loc_45E5D6
  0x0045E5D6    8a 08                                            mov     cl, [eax]
  0x0045E5D8    88 0c 02                                         mov     [edx+eax], cl
  0x0045E5DB    40                                               inc     eax
  0x0045E5DC    3a cb                                            cmp     cl, bl
  0x0045E5DE    75 f6                                            jnz     short loc_45E5D6    ; code_refs=[0x0045E5D6]

loc_45E5E0: ; preds=loc_45E5D6 succs=loc_45E5E6
  0x0045E5E0    8d 44 24 3c                                      lea     eax, [esp+344h+FindData.name]    ; data_refs=[0x000426FE]
  0x0045E5E4    8b f0                                            mov     esi, eax

loc_45E5E6: ; preds=loc_45E5E0,loc_45E5E6 succs=loc_45E5ED,loc_45E5E6
  0x0045E5E6    8a 08                                            mov     cl, [eax]
  0x0045E5E8    40                                               inc     eax
  0x0045E5E9    3a cb                                            cmp     cl, bl
  0x0045E5EB    75 f9                                            jnz     short loc_45E5E6    ; code_refs=[0x0045E5E6]

loc_45E5ED: ; preds=loc_45E5E6 succs=loc_45E5F7
  0x0045E5ED    8d bc 24 40 01 00 00                             lea     edi, [esp+344h+var_204]
  0x0045E5F4    2b c6                                            sub     eax, esi
  0x0045E5F6    4f                                               dec     edi

loc_45E5F7: ; preds=loc_45E5ED,loc_45E5F7 succs=loc_45E5FF,loc_45E5F7
  0x0045E5F7    8a 4f 01                                         mov     cl, [edi+1]
  0x0045E5FA    47                                               inc     edi
  0x0045E5FB    3a cb                                            cmp     cl, bl
  0x0045E5FD    75 f8                                            jnz     short loc_45E5F7    ; code_refs=[0x0045E5F7]

loc_45E5FF: ; preds=loc_45E5F7 succs=loc_45E629,loc_45E7DA
  0x0045E5FF    8b c8                                            mov     ecx, eax
  0x0045E601    c1 e9 02                                         shr     ecx, 2
  0x0045E604    f3 a5                                            rep movsd
  0x0045E606    8b c8                                            mov     ecx, eax
  0x0045E608    83 e1 03                                         and     ecx, 3
  0x0045E60B    68 10 01 00 00                                   push    110h; Size
  0x0045E610    f3 a4                                            rep movsb
  0x0045E612    ff 15 58 c4 53 00                                call    ds:malloc    ; code_refs=[0x0053C458] data_refs=[0x0053C458]
  0x0045E618    83 c4 04                                         add     esp, 4
  0x0045E61B    89 85 08 04 00 00                                mov     [ebp+408h], eax
  0x0045E621    3b c3                                            cmp     eax, ebx
  0x0045E623    0f 84 b1 01 00 00                                jz      loc_45E7DA    ; code_refs=[0x0045E7DA]

loc_45E629: ; preds=loc_45E5FF succs=loc_45E6BB,loc_45E6C9
  0x0045E629    8d 84 24 40 01 00 00                             lea     eax, [esp+344h+var_204]
  0x0045E630    50                                               push    eax
  0x0045E631    8b cd                                            mov     ecx, ebp
  0x0045E633    e8 68 fb ff ff                                   call    sub_45E1A0    ; code_refs=[0x0045E1A0]
  0x0045E638    0f b6 c8                                         movzx   ecx, al
  0x0045E63B    f7 d9                                            neg     ecx
  0x0045E63D    1b c9                                            sbb     ecx, ecx
  0x0045E63F    81 e1 00 04 ff ff                                and     ecx, 0FFFF0400h
  0x0045E645    81 c1 00 00 01 00                                add     ecx, 10000h
  0x0045E64B    51                                               push    ecx
  0x0045E64C    8d 94 24 44 01 00 00                             lea     edx, [esp+348h+var_204]
  0x0045E653    52                                               push    edx
  0x0045E654    8b cd                                            mov     ecx, ebp
  0x0045E656    e8 b5 fb ff ff                                   call    sub_45E210    ; code_refs=[0x0045E210]
  0x0045E65B    8b 8d 08 04 00 00                                mov     ecx, [ebp+408h]
  0x0045E661    89 81 08 01 00 00                                mov     [ecx+108h], eax
  0x0045E667    8b 95 08 04 00 00                                mov     edx, [ebp+408h]
  0x0045E66D    8b 44 24 38                                      mov     eax, [esp+344h+FindData.size]    ; data_refs=[0x000426FD]
  0x0045E671    89 82 0c 01 00 00                                mov     [edx+10Ch], eax
  0x0045E677    8b 95 08 04 00 00                                mov     edx, [ebp+408h]
  0x0045E67D    68 ff 00 00 00                                   push    0FFh; Count
  0x0045E682    8d 4c 24 40                                      lea     ecx, [esp+348h+FindData.name]    ; data_refs=[0x000426FE]
  0x0045E686    51                                               push    ecx; Source
  0x0045E687    83 c2 08                                         add     edx, 8
  0x0045E68A    52                                               push    edx; Destination
  0x0045E68B    ff 15 48 c4 53 00                                call    ds:strncpy    ; code_refs=[0x0053C448] data_refs=[0x0053C448]
  0x0045E691    8b 85 08 04 00 00                                mov     eax, [ebp+408h]
  0x0045E697    88 98 06 01 00 00                                mov     [eax+106h], bl
  0x0045E69D    8b 8d 08 04 00 00                                mov     ecx, [ebp+408h]
  0x0045E6A3    89 59 04                                         mov     [ecx+4], ebx
  0x0045E6A6    8b 95 08 04 00 00                                mov     edx, [ebp+408h]
  0x0045E6AC    89 1a                                            mov     [edx], ebx
  0x0045E6AE    8b b5 04 04 00 00                                mov     esi, [ebp+404h]
  0x0045E6B4    83 c4 0c                                         add     esp, 0Ch
  0x0045E6B7    3b f3                                            cmp     esi, ebx
  0x0045E6B9    75 0e                                            jnz     short loc_45E6C9    ; code_refs=[0x0045E6C9]

loc_45E6BB: ; preds=loc_45E629 succs=loc_45E718
  0x0045E6BB    8b 85 08 04 00 00                                mov     eax, [ebp+408h]
  0x0045E6C1    89 85 04 04 00 00                                mov     [ebp+404h], eax
  0x0045E6C7    eb 4f                                            jmp     short loc_45E718    ; code_refs=[0x0045E718]

loc_45E6C9: ; preds=loc_45E629 succs=loc_45E6D0
  0x0045E6C9    89 9d 0c 04 00 00                                mov     [ebp+40Ch], ebx
  0x0045E6CF    90                                               nop

loc_45E6D0: ; preds=loc_45E6C9,loc_45E6EF succs=loc_45E6EF,loc_45E783
  0x0045E6D0    8b 8d 08 04 00 00                                mov     ecx, [ebp+408h]
  0x0045E6D6    83 c1 08                                         add     ecx, 8
  0x0045E6D9    51                                               push    ecx; String2
  0x0045E6DA    8d 56 08                                         lea     edx, [esi+8]
  0x0045E6DD    52                                               push    edx; String1
  0x0045E6DE    ff 15 b0 c3 53 00                                call    ds:_stricmp    ; code_refs=[0x0053C3B0] data_refs=[0x0053C3B0]
  0x0045E6E4    83 c4 08                                         add     esp, 8
  0x0045E6E7    85 c0                                            test    eax, eax
  0x0045E6E9    0f 8f 94 00 00 00                                jg      loc_45E783    ; code_refs=[0x0045E783]

loc_45E6EF: ; preds=loc_45E6D0 succs=loc_45E6D0,loc_45E6FB
  0x0045E6EF    89 b5 0c 04 00 00                                mov     [ebp+40Ch], esi
  0x0045E6F5    8b 36                                            mov     esi, [esi]
  0x0045E6F7    3b f3                                            cmp     esi, ebx
  0x0045E6F9    75 d5                                            jnz     short loc_45E6D0    ; code_refs=[0x0045E6D0]

loc_45E6FB: ; preds=loc_45E6EF succs=loc_45E718
  0x0045E6FB    8b 85 0c 04 00 00                                mov     eax, [ebp+40Ch]
  0x0045E701    8b 8d 08 04 00 00                                mov     ecx, [ebp+408h]
  0x0045E707    89 08                                            mov     [eax], ecx
  0x0045E709    8b 95 08 04 00 00                                mov     edx, [ebp+408h]
  0x0045E70F    8b 85 0c 04 00 00                                mov     eax, [ebp+40Ch]
  0x0045E715    89 42 04                                         mov     [edx+4], eax

loc_45E718: ; preds=loc_45E6BB,loc_45E6FB,loc_45E78B,loc_45E7AD succs=loc_45E726,loc_45E73B
  0x0045E718    8b 85 a8 37 00 00                                mov     eax, [ebp+37A8h]
  0x0045E71E    ff 44 24 10                                      inc     [esp+344h+var_334]
  0x0045E722    3b c3                                            cmp     eax, ebx
  0x0045E724    7e 15                                            jle     short loc_45E73B    ; code_refs=[0x0045E73B]

loc_45E726: ; preds=loc_45E718 succs=loc_45E72C,loc_45E73B
  0x0045E726    39 44 24 10                                      cmp     [esp+344h+var_334], eax
  0x0045E72A    7c 0f                                            jl      short loc_45E73B    ; code_refs=[0x0045E73B]

loc_45E72C: ; preds=loc_45E726 succs=loc_45E73B
  0x0045E72C    68 e8 03 00 00                                   push    3E8h; dwMilliseconds
  0x0045E731    ff 15 78 c0 53 00                                call    ds:Sleep    ; code_refs=[0x0053C078] data_refs=[0x0053C078]
  0x0045E737    89 5c 24 10                                      mov     [esp+344h+var_334], ebx

loc_45E73B: ; preds=loc_45E718,loc_45E726,loc_45E72C succs=loc_45E747,loc_45E75E
  0x0045E73B    8b 74 24 14                                      mov     esi, [esp+344h+var_330]
  0x0045E73F    39 9d b4 37 00 00                                cmp     [ebp+37B4h], ebx
  0x0045E745    7f 17                                            jg      short loc_45E75E    ; code_refs=[0x0045E75E]

loc_45E747: ; preds=loc_45E5A0,loc_45E5AB,loc_45E73B succs=loc_45E5A0,loc_45E75E
  0x0045E747    8d 4c 24 18                                      lea     ecx, [esp+344h+FindData]
  0x0045E74B    51                                               push    ecx; FindData
  0x0045E74C    56                                               push    esi; FindHandle
  0x0045E74D    ff 15 38 c4 53 00                                call    ds:_findnext64i32    ; code_refs=[0x0053C438] data_refs=[0x0053C438]
  0x0045E753    83 c4 08                                         add     esp, 8
  0x0045E756    85 c0                                            test    eax, eax
  0x0045E758    0f 84 42 fe ff ff                                jz      loc_45E5A0    ; code_refs=[0x0045E5A0]

loc_45E75E: ; preds=loc_45E55A,loc_45E73B,loc_45E747 succs=loc_45E768
  0x0045E75E    56                                               push    esi; FindHandle
  0x0045E75F    ff 15 34 c4 53 00                                call    ds:_findclose    ; code_refs=[0x0053C434] data_refs=[0x0053C434]
  0x0045E765    83 c4 04                                         add     esp, 4

loc_45E768: ; preds=loc_45E75E,loc_45E7DA succs=loc_45E76A
  0x0045E768    5f                                               pop     edi
  0x0045E769    5e                                               pop     esi

loc_45E76A: ; preds=loc_45E4F0,loc_45E768 succs=
  0x0045E76A    8b 8c 24 38 03 00 00                             mov     ecx, [esp+33Ch+var_4]
  0x0045E771    5d                                               pop     ebp
  0x0045E772    5b                                               pop     ebx
  0x0045E773    33 cc                                            xor     ecx, esp
  0x0045E775    e8 26 fd 0c 00                                   call    sub_52E4A0    ; code_refs=[0x0052E4A0]
  0x0045E77A    81 c4 34 03 00 00                                add     esp, 334h
  0x0045E780    c2 08 00                                         retn    8

loc_45E783: ; preds=loc_45E6D0 succs=loc_45E78B,loc_45E7AD
  0x0045E783    3b b5 04 04 00 00                                cmp     esi, [ebp+404h]
  0x0045E789    75 22                                            jnz     short loc_45E7AD    ; code_refs=[0x0045E7AD]

loc_45E78B: ; preds=loc_45E783 succs=loc_45E718
  0x0045E78B    8b 85 08 04 00 00                                mov     eax, [ebp+408h]
  0x0045E791    89 30                                            mov     [eax], esi
  0x0045E793    8b 8d 08 04 00 00                                mov     ecx, [ebp+408h]
  0x0045E799    89 4e 04                                         mov     [esi+4], ecx
  0x0045E79C    8b 95 08 04 00 00                                mov     edx, [ebp+408h]
  0x0045E7A2    89 95 04 04 00 00                                mov     [ebp+404h], edx
  0x0045E7A8    e9 6b ff ff ff                                   jmp     loc_45E718    ; code_refs=[0x0045E718]

loc_45E7AD: ; preds=loc_45E783 succs=loc_45E718
  0x0045E7AD    8b 46 04                                         mov     eax, [esi+4]
  0x0045E7B0    8b 8d 08 04 00 00                                mov     ecx, [ebp+408h]
  0x0045E7B6    89 08                                            mov     [eax], ecx
  0x0045E7B8    8b 95 08 04 00 00                                mov     edx, [ebp+408h]
  0x0045E7BE    8b 46 04                                         mov     eax, [esi+4]
  0x0045E7C1    89 42 04                                         mov     [edx+4], eax
  0x0045E7C4    8b 8d 08 04 00 00                                mov     ecx, [ebp+408h]
  0x0045E7CA    89 31                                            mov     [ecx], esi
  0x0045E7CC    8b 95 08 04 00 00                                mov     edx, [ebp+408h]
  0x0045E7D2    89 56 04                                         mov     [esi+4], edx
  0x0045E7D5    e9 3e ff ff ff                                   jmp     loc_45E718    ; code_refs=[0x0045E718]

loc_45E7DA: ; preds=loc_45E5FF succs=loc_45E768
  0x0045E7DA    88 9d b8 37 00 00                                mov     [ebp+37B8h], bl
  0x0045E7E0    eb 86                                            jmp     short loc_45E768    ; code_refs=[0x0045E768]
; END_FUNC 0x0045E4F0 sub_45E4F0


; ======================================================================================================================
; FUNC 0x004760E0 sub_4760E0 size=552 segment=.text
; STRINGS:
;   0x0053DB34 'filelist.dat'
;   0x0053F350 '..\\ShareClientSeverCode\\Inter.cpp'
; ----------------------------------------------------------------------------------------------------------------------

loc_4760E0: ; preds= succs=loc_47610D,loc_4762F8
  0x004760E0    83 ec 08                                         sub     esp, 8
  0x004760E3    56                                               push    esi
  0x004760E4    57                                               push    edi
  0x004760E5    8b f1                                            mov     esi, ecx
  0x004760E7    68 40 64 9c 00                                   push    offset FindData; FindData    ; data_refs=[0x009C6440]
  0x004760EC    68 c8 d3 6f 00                                   push    offset byte_6FD3C8; FileName    ; data_refs=[0x006FD3C8]
  0x004760F1    89 74 24 10                                      mov     [esp+18h+var_8], esi
  0x004760F5    ff 15 3c c4 53 00                                call    ds:_findfirst64i32    ; code_refs=[0x0053C43C] data_refs=[0x0053C43C]
  0x004760FB    8b f8                                            mov     edi, eax
  0x004760FD    83 c4 08                                         add     esp, 8
  0x00476100    89 7c 24 0c                                      mov     [esp+10h+FindHandle], edi
  0x00476104    83 ff ff                                         cmp     edi, 0FFFFFFFFh
  0x00476107    0f 84 eb 01 00 00                                jz      loc_4762F8    ; code_refs=[0x004762F8]

loc_47610D: ; preds=loc_4760E0 succs=loc_476124
  0x0047610D    53                                               push    ebx
  0x0047610E    55                                               push    ebp
  0x0047610F    8b 2d 48 c4 53 00                                mov     ebp, ds:strncpy    ; data_refs=[0x0053C448]
  0x00476115    33 db                                            xor     ebx, ebx
  0x00476117    eb 0b                                            jmp     short loc_476124    ; code_refs=[0x00476124]

loc_476120: ; preds=loc_4762DB succs=loc_476124
  0x00476120    8b 74 24 10                                      mov     esi, [esp+18h+var_8]

loc_476124: ; preds=loc_47610D,loc_476120 succs=loc_476131,loc_4762DB
  0x00476124    f6 05 40 64 9c 00 10                             test    byte ptr FindData.attrib, 10h    ; data_refs=[0x009C6440,0x000426F9]
  0x0047612B    0f 85 aa 01 00 00                                jnz     loc_4762DB    ; code_refs=[0x004762DB]

loc_476131: ; preds=loc_476124 succs=loc_47614C,loc_4762DB
  0x00476131    68 34 db 53 00                                   push    offset aFilelistDat; "filelist.dat"    ; data_refs=[0x0053DB34]
  0x00476136    68 64 64 9c 00                                   push    offset FindData.name; String1    ; data_refs=[0x009C6464,0x000426FE]
  0x0047613B    ff 15 b0 c3 53 00                                call    ds:_stricmp    ; code_refs=[0x0053C3B0] data_refs=[0x0053C3B0]
  0x00476141    83 c4 08                                         add     esp, 8
  0x00476144    85 c0                                            test    eax, eax
  0x00476146    0f 84 8f 01 00 00                                jz      loc_4762DB    ; code_refs=[0x004762DB]

loc_47614C: ; preds=loc_476131 succs=loc_476155
  0x0047614C    ba 98 c6 74 04                                   mov     edx, offset byte_474C698    ; data_refs=[0x0474C698]
  0x00476151    8b c6                                            mov     eax, esi
  0x00476153    2b d6                                            sub     edx, esi

loc_476155: ; preds=loc_47614C,loc_476155 succs=loc_47615F,loc_476155
  0x00476155    8a 08                                            mov     cl, [eax]
  0x00476157    88 0c 02                                         mov     [edx+eax], cl
  0x0047615A    40                                               inc     eax
  0x0047615B    3a cb                                            cmp     cl, bl
  0x0047615D    75 f6                                            jnz     short loc_476155    ; code_refs=[0x00476155]

loc_47615F: ; preds=loc_476155 succs=loc_476166
  0x0047615F    b8 64 64 9c 00                                   mov     eax, offset FindData.name    ; data_refs=[0x009C6464,0x000426FE]
  0x00476164    8b f0                                            mov     esi, eax

loc_476166: ; preds=loc_47615F,loc_476166 succs=loc_47616D,loc_476166
  0x00476166    8a 08                                            mov     cl, [eax]
  0x00476168    40                                               inc     eax
  0x00476169    3a cb                                            cmp     cl, bl
  0x0047616B    75 f9                                            jnz     short loc_476166    ; code_refs=[0x00476166]

loc_47616D: ; preds=loc_476166 succs=loc_476175
  0x0047616D    bf 98 c6 74 04                                   mov     edi, offset byte_474C698    ; data_refs=[0x0474C698]
  0x00476172    2b c6                                            sub     eax, esi
  0x00476174    4f                                               dec     edi

loc_476175: ; preds=loc_47616D,loc_476175 succs=loc_47617D,loc_476175
  0x00476175    8a 4f 01                                         mov     cl, [edi+1]
  0x00476178    47                                               inc     edi
  0x00476179    3a cb                                            cmp     cl, bl
  0x0047617B    75 f8                                            jnz     short loc_476175    ; code_refs=[0x00476175]

loc_47617D: ; preds=loc_476175 succs=loc_476207,loc_476216
  0x0047617D    8b c8                                            mov     ecx, eax
  0x0047617F    c1 e9 02                                         shr     ecx, 2
  0x00476182    f3 a5                                            rep movsd
  0x00476184    8b c8                                            mov     ecx, eax
  0x00476186    83 e1 03                                         and     ecx, 3
  0x00476189    f3 a4                                            rep movsb
  0x0047618B    68 f1 0e 00 00                                   push    0EF1h
  0x00476190    ba 50 f3 53 00                                   mov     edx, offset aShareclientsev_4; "..\\ShareClientSeverCode\\Inter.cpp"    ; data_refs=[0x0053F350]
  0x00476195    b9 18 01 00 00                                   mov     ecx, 118h
  0x0047619A    e8 51 59 0b 00                                   call    sub_52BAF0    ; code_refs=[0x0052BAF0]
  0x0047619F    b9 98 c6 74 04                                   mov     ecx, offset byte_474C698    ; data_refs=[0x0474C698]
  0x004761A4    a3 90 c6 74 04                                   mov     dword_474C690, eax    ; data_refs=[0x0474C690]
  0x004761A9    e8 32 fe ff ff                                   call    sub_475FE0    ; code_refs=[0x00475FE0]
  0x004761AE    8b 0d 90 c6 74 04                                mov     ecx, dword_474C690    ; data_refs=[0x0474C690]
  0x004761B4    99                                               cdq
  0x004761B5    89 81 08 01 00 00                                mov     [ecx+108h], eax
  0x004761BB    a1 90 c6 74 04                                   mov     eax, dword_474C690    ; data_refs=[0x0474C690]
  0x004761C0    89 90 0c 01 00 00                                mov     [eax+10Ch], edx
  0x004761C6    8b 0d 90 c6 74 04                                mov     ecx, dword_474C690    ; data_refs=[0x0474C690]
  0x004761CC    8b 15 60 64 9c 00                                mov     edx, FindData.size    ; data_refs=[0x009C6460,0x000426FD]
  0x004761D2    89 91 10 01 00 00                                mov     [ecx+110h], edx
  0x004761D8    a1 90 c6 74 04                                   mov     eax, dword_474C690    ; data_refs=[0x0474C690]
  0x004761DD    6a 40                                            push    40h ; '@'; Count
  0x004761DF    83 c0 08                                         add     eax, 8
  0x004761E2    68 64 64 9c 00                                   push    offset FindData.name; Source    ; data_refs=[0x009C6464,0x000426FE]
  0x004761E7    50                                               push    eax; Destination
  0x004761E8    ff d5                                            call    ebp ; strncpy    ; code_refs=[0x0053C448]
  0x004761EA    8b 0d 90 c6 74 04                                mov     ecx, dword_474C690    ; data_refs=[0x0474C690]
  0x004761F0    89 59 04                                         mov     [ecx+4], ebx
  0x004761F3    8b 15 90 c6 74 04                                mov     edx, dword_474C690    ; data_refs=[0x0474C690]
  0x004761F9    89 1a                                            mov     [edx], ebx
  0x004761FB    a1 88 ab a2 04                                   mov     eax, dword_4A2AB88    ; data_refs=[0x04A2AB88]
  0x00476200    83 c4 0c                                         add     esp, 0Ch
  0x00476203    3b c3                                            cmp     eax, ebx
  0x00476205    75 0f                                            jnz     short loc_476216    ; code_refs=[0x00476216]

loc_476207: ; preds=loc_47617D succs=loc_4762DB
  0x00476207    a1 90 c6 74 04                                   mov     eax, dword_474C690    ; data_refs=[0x0474C690]
  0x0047620C    a3 88 ab a2 04                                   mov     dword_4A2AB88, eax    ; data_refs=[0x04A2AB88]
  0x00476211    e9 c5 00 00 00                                   jmp     loc_4762DB    ; code_refs=[0x004762DB]

loc_476216: ; preds=loc_47617D succs=loc_476221
  0x00476216    89 1d b0 dd e5 03                                mov     dword_3E5DDB0, ebx    ; data_refs=[0x03E5DDB0]
  0x0047621C    a3 e0 06 8c 04                                   mov     dword_48C06E0, eax    ; data_refs=[0x048C06E0]

loc_476221: ; preds=loc_476216,loc_476241 succs=loc_476241,loc_476253
  0x00476221    8b 0d 90 c6 74 04                                mov     ecx, dword_474C690    ; data_refs=[0x0474C690]
  0x00476227    83 c1 08                                         add     ecx, 8
  0x0047622A    51                                               push    ecx; String2
  0x0047622B    83 c0 08                                         add     eax, 8
  0x0047622E    50                                               push    eax; String1
  0x0047622F    ff 15 b0 c3 53 00                                call    ds:_stricmp    ; code_refs=[0x0053C3B0] data_refs=[0x0053C3B0]
  0x00476235    83 c4 08                                         add     esp, 8
  0x00476238    85 c0                                            test    eax, eax
  0x0047623A    a1 e0 06 8c 04                                   mov     eax, dword_48C06E0    ; data_refs=[0x048C06E0]
  0x0047623F    7f 12                                            jg      short loc_476253    ; code_refs=[0x00476253]

loc_476241: ; preds=loc_476221 succs=loc_476221,loc_476251
  0x00476241    a3 b0 dd e5 03                                   mov     dword_3E5DDB0, eax    ; data_refs=[0x03E5DDB0]
  0x00476246    8b 00                                            mov     eax, [eax]
  0x00476248    a3 e0 06 8c 04                                   mov     dword_48C06E0, eax    ; data_refs=[0x048C06E0]
  0x0047624D    3b c3                                            cmp     eax, ebx
  0x0047624F    75 d0                                            jnz     short loc_476221    ; code_refs=[0x00476221]

loc_476251: ; preds=loc_476241 succs=loc_4762C0
  0x00476251    eb 6d                                            jmp     short loc_4762C0    ; code_refs=[0x004762C0]

loc_476253: ; preds=loc_476221 succs=loc_47625B,loc_47627F
  0x00476253    3b 05 88 ab a2 04                                cmp     eax, dword_4A2AB88    ; data_refs=[0x04A2AB88]
  0x00476259    75 24                                            jnz     short loc_47627F    ; code_refs=[0x0047627F]

loc_47625B: ; preds=loc_476253 succs=loc_4762B8
  0x0047625B    8b 15 90 c6 74 04                                mov     edx, dword_474C690    ; data_refs=[0x0474C690]
  0x00476261    89 02                                            mov     [edx], eax
  0x00476263    a1 90 c6 74 04                                   mov     eax, dword_474C690    ; data_refs=[0x0474C690]
  0x00476268    8b 0d e0 06 8c 04                                mov     ecx, dword_48C06E0    ; data_refs=[0x048C06E0]
  0x0047626E    89 41 04                                         mov     [ecx+4], eax
  0x00476271    8b 15 90 c6 74 04                                mov     edx, dword_474C690    ; data_refs=[0x0474C690]
  0x00476277    89 15 88 ab a2 04                                mov     dword_4A2AB88, edx    ; data_refs=[0x04A2AB88]
  0x0047627D    eb 39                                            jmp     short loc_4762B8    ; code_refs=[0x004762B8]

loc_47627F: ; preds=loc_476253 succs=loc_4762B8
  0x0047627F    8b 40 04                                         mov     eax, [eax+4]
  0x00476282    8b 0d 90 c6 74 04                                mov     ecx, dword_474C690    ; data_refs=[0x0474C690]
  0x00476288    89 08                                            mov     [eax], ecx
  0x0047628A    8b 15 e0 06 8c 04                                mov     edx, dword_48C06E0    ; data_refs=[0x048C06E0]
  0x00476290    8b 42 04                                         mov     eax, [edx+4]
  0x00476293    8b 0d 90 c6 74 04                                mov     ecx, dword_474C690    ; data_refs=[0x0474C690]
  0x00476299    89 41 04                                         mov     [ecx+4], eax
  0x0047629C    8b 15 90 c6 74 04                                mov     edx, dword_474C690    ; data_refs=[0x0474C690]
  0x004762A2    a1 e0 06 8c 04                                   mov     eax, dword_48C06E0    ; data_refs=[0x048C06E0]
  0x004762A7    89 02                                            mov     [edx], eax
  0x004762A9    8b 0d 90 c6 74 04                                mov     ecx, dword_474C690    ; data_refs=[0x0474C690]
  0x004762AF    8b 15 e0 06 8c 04                                mov     edx, dword_48C06E0    ; data_refs=[0x048C06E0]
  0x004762B5    89 4a 04                                         mov     [edx+4], ecx

loc_4762B8: ; preds=loc_47625B,loc_47627F succs=loc_4762C0,loc_4762DB
  0x004762B8    39 1d e0 06 8c 04                                cmp     dword_48C06E0, ebx    ; data_refs=[0x048C06E0]
  0x004762BE    75 1b                                            jnz     short loc_4762DB    ; code_refs=[0x004762DB]

loc_4762C0: ; preds=loc_476251,loc_4762B8 succs=loc_4762DB
  0x004762C0    a1 90 c6 74 04                                   mov     eax, dword_474C690    ; data_refs=[0x0474C690]
  0x004762C5    8b 0d b0 dd e5 03                                mov     ecx, dword_3E5DDB0    ; data_refs=[0x03E5DDB0]
  0x004762CB    89 01                                            mov     [ecx], eax
  0x004762CD    8b 15 90 c6 74 04                                mov     edx, dword_474C690    ; data_refs=[0x0474C690]
  0x004762D3    a1 b0 dd e5 03                                   mov     eax, dword_3E5DDB0    ; data_refs=[0x03E5DDB0]
  0x004762D8    89 42 04                                         mov     [edx+4], eax

loc_4762DB: ; preds=loc_476124,loc_476131,loc_476207,loc_4762B8,loc_4762C0 succs=loc_476120,loc_4762F6
  0x004762DB    8b 7c 24 14                                      mov     edi, [esp+18h+FindHandle]
  0x004762DF    68 40 64 9c 00                                   push    offset FindData; FindData    ; data_refs=[0x009C6440]
  0x004762E4    57                                               push    edi; FindHandle
  0x004762E5    ff 15 38 c4 53 00                                call    ds:_findnext64i32    ; code_refs=[0x0053C438] data_refs=[0x0053C438]
  0x004762EB    83 c4 08                                         add     esp, 8
  0x004762EE    85 c0                                            test    eax, eax
  0x004762F0    0f 84 2a fe ff ff                                jz      loc_476120    ; code_refs=[0x00476120]

loc_4762F6: ; preds=loc_4762DB succs=loc_4762F8
  0x004762F6    5d                                               pop     ebp
  0x004762F7    5b                                               pop     ebx

loc_4762F8: ; preds=loc_4760E0,loc_4762F6 succs=
  0x004762F8    57                                               push    edi; FindHandle
  0x004762F9    ff 15 34 c4 53 00                                call    ds:_findclose    ; code_refs=[0x0053C434] data_refs=[0x0053C434]
  0x004762FF    83 c4 04                                         add     esp, 4
  0x00476302    5f                                               pop     edi
  0x00476303    5e                                               pop     esi
  0x00476304    83 c4 08                                         add     esp, 8
  0x00476307    c3                                               retn
; END_FUNC 0x004760E0 sub_4760E0


; ======================================================================================================================
; FUNC 0x00476310 sub_476310 size=975 segment=.text
; TYPE: int __thiscall(char *Str1)
; STRINGS:
;   0x0053DB34 'filelist.dat'
;   0x0053DB38 'list.dat'
;   0x0053DB3C '.dat'
;   0x0053DB64 'xupdate'
;   0x0053F3B8 '*.*'
;   0x0053F3AC 'sphere*.exe'
;   0x0053F3B0 're*.exe'
;   0x0053F3B4 'exe'
;   0x0053F39C 'xlaunch*.exe'
;   0x0053F3A0 'nch*.exe'
;   0x0053F3A4 '.exe'
;   0x0053F394 '*.dll'
;   0x0053F398 'l'
;   0x0053F350 '..\\ShareClientSeverCode\\Inter.cpp'
; ----------------------------------------------------------------------------------------------------------------------

loc_476310: ; preds= succs=loc_476328
  0x00476310    51                                               push    ecx
  0x00476311    53                                               push    ebx
  0x00476312    55                                               push    ebp
  0x00476313    56                                               push    esi
  0x00476314    8b e9                                            mov     ebp, ecx
  0x00476316    33 db                                            xor     ebx, ebx
  0x00476318    be c8 d3 6f 00                                   mov     esi, offset byte_6FD3C8    ; data_refs=[0x006FD3C8]
  0x0047631D    57                                               push    edi
  0x0047631E    89 1d 88 ab a2 04                                mov     dword_4A2AB88, ebx    ; data_refs=[0x04A2AB88]
  0x00476324    8b c5                                            mov     eax, ebp
  0x00476326    2b f5                                            sub     esi, ebp

loc_476328: ; preds=loc_476310,loc_476328 succs=loc_476332,loc_476328
  0x00476328    8a 08                                            mov     cl, [eax]
  0x0047632A    88 0c 06                                         mov     [esi+eax], cl
  0x0047632D    40                                               inc     eax
  0x0047632E    3a cb                                            cmp     cl, bl
  0x00476330    75 f6                                            jnz     short loc_476328    ; code_refs=[0x00476328]

loc_476332: ; preds=loc_476328 succs=loc_476338
  0x00476332    b8 c8 d3 6f 00                                   mov     eax, offset byte_6FD3C8    ; data_refs=[0x006FD3C8]
  0x00476337    48                                               dec     eax

loc_476338: ; preds=loc_476332,loc_476338 succs=loc_476340,loc_476338
  0x00476338    8a 48 01                                         mov     cl, [eax+1]
  0x0047633B    40                                               inc     eax
  0x0047633C    3a cb                                            cmp     cl, bl
  0x0047633E    75 f8                                            jnz     short loc_476338    ; code_refs=[0x00476338]

loc_476340: ; preds=loc_476338 succs=loc_47637E,loc_476390
  0x00476340    8b 0d 34 db 53 00                                mov     ecx, dword ptr ds:aFilelistDat; "filelist.dat"    ; data_refs=[0x0053DB34]
  0x00476346    8b 15 38 db 53 00                                mov     edx, dword ptr ds:aFilelistDat+4; "list.dat"    ; data_refs=[0x0053DB38]
  0x0047634C    89 08                                            mov     [eax], ecx
  0x0047634E    8b 0d 3c db 53 00                                mov     ecx, dword ptr ds:aFilelistDat+8; ".dat"    ; data_refs=[0x0053DB3C]
  0x00476354    89 50 04                                         mov     [eax+4], edx
  0x00476357    8a 15 40 db 53 00                                mov     dl, byte ptr ds:aFilelistDat+0Ch; ""    ; data_refs=[0x0053DB40]
  0x0047635D    53                                               push    ebx
  0x0047635E    68 00 80 00 00                                   push    8000h
  0x00476363    89 48 08                                         mov     [eax+8], ecx
  0x00476366    68 c8 d3 6f 00                                   push    offset byte_6FD3C8    ; data_refs=[0x006FD3C8]
  0x0047636B    88 50 0c                                         mov     [eax+0Ch], dl
  0x0047636E    ff 15 c0 c3 53 00                                call    ds:?_open@@YAHPBDHH@Z; _open(char const *,int,int)    ; code_refs=[0x0053C3C0] data_refs=[0x0053C3C0]
  0x00476374    8b f8                                            mov     edi, eax
  0x00476376    83 c4 0c                                         add     esp, 0Ch
  0x00476379    83 ff ff                                         cmp     edi, 0FFFFFFFFh
  0x0047637C    74 12                                            jz      short loc_476390    ; code_refs=[0x00476390]

loc_47637E: ; preds=loc_476340 succs=loc_476386,loc_4763CD
  0x0047637E    39 1d 44 ab a2 04                                cmp     dword_4A2AB44, ebx    ; data_refs=[0x04A2AB44]
  0x00476384    74 47                                            jz      short loc_4763CD    ; code_refs=[0x004763CD]

loc_476386: ; preds=loc_47637E succs=loc_476390
  0x00476386    57                                               push    edi; FileHandle
  0x00476387    ff 15 b8 c3 53 00                                call    ds:_close    ; code_refs=[0x0053C3B8] data_refs=[0x0053C3B8]
  0x0047638D    83 c4 04                                         add     esp, 4

loc_476390: ; preds=loc_476340,loc_476386 succs=loc_4763A5,loc_4763EB
  0x00476390    6a 07                                            push    7; MaxCount
  0x00476392    68 64 db 53 00                                   push    offset aXupdate; "xupdate"    ; data_refs=[0x0053DB64]
  0x00476397    55                                               push    ebp; Str1
  0x00476398    ff 15 64 c4 53 00                                call    ds:strncmp    ; code_refs=[0x0053C464] data_refs=[0x0053C464]
  0x0047639E    83 c4 0c                                         add     esp, 0Ch
  0x004763A1    85 c0                                            test    eax, eax
  0x004763A3    74 46                                            jz      short loc_4763EB    ; code_refs=[0x004763EB]

loc_4763A5: ; preds=loc_476390 succs=loc_4763A7
  0x004763A5    8b c5                                            mov     eax, ebp

loc_4763A7: ; preds=loc_4763A5,loc_4763A7 succs=loc_4763B1,loc_4763A7
  0x004763A7    8a 08                                            mov     cl, [eax]
  0x004763A9    88 0c 06                                         mov     [esi+eax], cl
  0x004763AC    40                                               inc     eax
  0x004763AD    3a cb                                            cmp     cl, bl
  0x004763AF    75 f6                                            jnz     short loc_4763A7    ; code_refs=[0x004763A7]

loc_4763B1: ; preds=loc_4763A7 succs=loc_4763B7
  0x004763B1    bf c8 d3 6f 00                                   mov     edi, offset byte_6FD3C8    ; data_refs=[0x006FD3C8]
  0x004763B6    4f                                               dec     edi

loc_4763B7: ; preds=loc_4763B1,loc_4763B7 succs=loc_4763BF,loc_4763B7
  0x004763B7    8a 47 01                                         mov     al, [edi+1]
  0x004763BA    47                                               inc     edi
  0x004763BB    3a c3                                            cmp     al, bl
  0x004763BD    75 f8                                            jnz     short loc_4763B7    ; code_refs=[0x004763B7]

loc_4763BF: ; preds=loc_4763B7 succs=loc_476491
  0x004763BF    a1 b8 f3 53 00                                   mov     eax, ds:dword_53F3B8    ; data_refs=[0x0053F3B8]
  0x004763C4    89 07                                            mov     [edi], eax
  0x004763C6    8b cd                                            mov     ecx, ebp
  0x004763C8    e9 c4 00 00 00                                   jmp     loc_476491    ; code_refs=[0x00476491]

loc_4763CD: ; preds=loc_47637E succs=
  0x004763CD    6a 04                                            push    4; MaxCharCount
  0x004763CF    68 80 aa e6 03                                   push    offset dword_3E6AA80; DstBuf    ; data_refs=[0x03E6AA80]
  0x004763D4    57                                               push    edi; FileHandle
  0x004763D5    ff 15 bc c3 53 00                                call    ds:_read    ; code_refs=[0x0053C3BC] data_refs=[0x0053C3BC]
  0x004763DB    57                                               push    edi; FileHandle
  0x004763DC    ff 15 b8 c3 53 00                                call    ds:_close    ; code_refs=[0x0053C3B8] data_refs=[0x0053C3B8]
  0x004763E2    83 c4 10                                         add     esp, 10h
  0x004763E5    5f                                               pop     edi
  0x004763E6    5e                                               pop     esi
  0x004763E7    5d                                               pop     ebp
  0x004763E8    5b                                               pop     ebx
  0x004763E9    59                                               pop     ecx
  0x004763EA    c3                                               retn

loc_4763EB: ; preds=loc_476390 succs=loc_4763F7
  0x004763EB    b8 c8 d3 6f 00                                   mov     eax, offset byte_6FD3C8    ; data_refs=[0x006FD3C8]
  0x004763F0    88 1d c8 d3 6f 00                                mov     byte_6FD3C8, bl    ; data_refs=[0x006FD3C8]
  0x004763F6    48                                               dec     eax

loc_4763F7: ; preds=loc_4763EB,loc_4763F7 succs=loc_4763FF,loc_4763F7
  0x004763F7    8a 48 01                                         mov     cl, [eax+1]
  0x004763FA    40                                               inc     eax
  0x004763FB    3a cb                                            cmp     cl, bl
  0x004763FD    75 f8                                            jnz     short loc_4763F7    ; code_refs=[0x004763F7]

loc_4763FF: ; preds=loc_4763F7 succs=loc_476430
  0x004763FF    8b 0d ac f3 53 00                                mov     ecx, ds:dword_53F3AC    ; data_refs=[0x0053F3AC]
  0x00476405    8b 15 b0 f3 53 00                                mov     edx, ds:dword_53F3B0    ; data_refs=[0x0053F3B0]
  0x0047640B    89 08                                            mov     [eax], ecx
  0x0047640D    8b 0d b4 f3 53 00                                mov     ecx, ds:off_53F3B4    ; data_refs=[0x0053F3B4]
  0x00476413    89 50 04                                         mov     [eax+4], edx
  0x00476416    89 48 08                                         mov     [eax+8], ecx
  0x00476419    b9 6a ce 53 00                                   mov     ecx, offset name    ; data_refs=[0x0053CE6A]
  0x0047641E    e8 bd fc ff ff                                   call    sub_4760E0    ; code_refs=[0x004760E0]
  0x00476423    b8 c8 d3 6f 00                                   mov     eax, offset byte_6FD3C8    ; data_refs=[0x006FD3C8]
  0x00476428    88 1d c8 d3 6f 00                                mov     byte_6FD3C8, bl    ; data_refs=[0x006FD3C8]
  0x0047642E    48                                               dec     eax
  0x0047642F    90                                               nop

loc_476430: ; preds=loc_4763FF,loc_476430 succs=loc_476438,loc_476430
  0x00476430    8a 48 01                                         mov     cl, [eax+1]
  0x00476433    40                                               inc     eax
  0x00476434    3a cb                                            cmp     cl, bl
  0x00476436    75 f8                                            jnz     short loc_476430    ; code_refs=[0x00476430]

loc_476438: ; preds=loc_476430 succs=loc_476471
  0x00476438    8b 15 9c f3 53 00                                mov     edx, ds:dword_53F39C    ; data_refs=[0x0053F39C]
  0x0047643E    8b 0d a0 f3 53 00                                mov     ecx, ds:dword_53F3A0    ; data_refs=[0x0053F3A0]
  0x00476444    89 10                                            mov     [eax], edx
  0x00476446    8b 15 a4 f3 53 00                                mov     edx, ds:dword_53F3A4    ; data_refs=[0x0053F3A4]
  0x0047644C    89 48 04                                         mov     [eax+4], ecx
  0x0047644F    8a 0d a8 f3 53 00                                mov     cl, ds:byte_53F3A8    ; data_refs=[0x0053F3A8]
  0x00476455    89 50 08                                         mov     [eax+8], edx
  0x00476458    88 48 0c                                         mov     [eax+0Ch], cl
  0x0047645B    b9 6a ce 53 00                                   mov     ecx, offset name    ; data_refs=[0x0053CE6A]
  0x00476460    e8 7b fc ff ff                                   call    sub_4760E0    ; code_refs=[0x004760E0]
  0x00476465    b8 c8 d3 6f 00                                   mov     eax, offset byte_6FD3C8    ; data_refs=[0x006FD3C8]
  0x0047646A    88 1d c8 d3 6f 00                                mov     byte_6FD3C8, bl    ; data_refs=[0x006FD3C8]
  0x00476470    48                                               dec     eax

loc_476471: ; preds=loc_476438,loc_476471 succs=loc_476479,loc_476471
  0x00476471    8a 48 01                                         mov     cl, [eax+1]
  0x00476474    40                                               inc     eax
  0x00476475    3a cb                                            cmp     cl, bl
  0x00476477    75 f8                                            jnz     short loc_476471    ; code_refs=[0x00476471]

loc_476479: ; preds=loc_476471 succs=loc_476491
  0x00476479    8b 15 94 f3 53 00                                mov     edx, ds:dword_53F394    ; data_refs=[0x0053F394]
  0x0047647F    66 8b 0d 98 f3 53 00                             mov     cx, ds:word_53F398    ; data_refs=[0x0053F398]
  0x00476486    89 10                                            mov     [eax], edx
  0x00476488    66 89 48 04                                      mov     [eax+4], cx
  0x0047648C    b9 6a ce 53 00                                   mov     ecx, offset name    ; data_refs=[0x0053CE6A]

loc_476491: ; preds=loc_4763BF,loc_476479 succs=loc_4764A0
  0x00476491    e8 4a fc ff ff                                   call    sub_4760E0    ; code_refs=[0x004760E0]
  0x00476496    ba 98 c6 74 04                                   mov     edx, offset byte_474C698    ; data_refs=[0x0474C698]
  0x0047649B    8b c5                                            mov     eax, ebp
  0x0047649D    2b d5                                            sub     edx, ebp
  0x0047649F    90                                               nop

loc_4764A0: ; preds=loc_476491,loc_4764A0 succs=loc_4764AA,loc_4764A0
  0x004764A0    8a 08                                            mov     cl, [eax]
  0x004764A2    88 0c 02                                         mov     [edx+eax], cl
  0x004764A5    40                                               inc     eax
  0x004764A6    3a cb                                            cmp     cl, bl
  0x004764A8    75 f6                                            jnz     short loc_4764A0    ; code_refs=[0x004764A0]

loc_4764AA: ; preds=loc_4764A0 succs=loc_4764B0
  0x004764AA    b8 98 c6 74 04                                   mov     eax, offset byte_474C698    ; data_refs=[0x0474C698]
  0x004764AF    48                                               dec     eax

loc_4764B0: ; preds=loc_4764AA,loc_4764B0 succs=loc_4764B8,loc_4764B0
  0x004764B0    8a 48 01                                         mov     cl, [eax+1]
  0x004764B3    40                                               inc     eax
  0x004764B4    3a cb                                            cmp     cl, bl
  0x004764B6    75 f8                                            jnz     short loc_4764B0    ; code_refs=[0x004764B0]

loc_4764B8: ; preds=loc_4764B0 succs=loc_476513,loc_4766B9
  0x004764B8    8b 15 34 db 53 00                                mov     edx, dword ptr ds:aFilelistDat; "filelist.dat"    ; data_refs=[0x0053DB34]
  0x004764BE    8b 0d 38 db 53 00                                mov     ecx, dword ptr ds:aFilelistDat+4; "list.dat"    ; data_refs=[0x0053DB38]
  0x004764C4    89 10                                            mov     [eax], edx
  0x004764C6    8b 15 3c db 53 00                                mov     edx, dword ptr ds:aFilelistDat+8; ".dat"    ; data_refs=[0x0053DB3C]
  0x004764CC    89 48 04                                         mov     [eax+4], ecx
  0x004764CF    8a 0d 40 db 53 00                                mov     cl, byte ptr ds:aFilelistDat+0Ch; ""    ; data_refs=[0x0053DB40]
  0x004764D5    89 50 08                                         mov     [eax+8], edx
  0x004764D8    88 48 0c                                         mov     [eax+0Ch], cl
  0x004764DB    b9 98 c6 74 04                                   mov     ecx, offset byte_474C698; FileName    ; data_refs=[0x0474C698]
  0x004764E0    e8 8b 87 ff ff                                   call    sub_46EC70    ; code_refs=[0x0046EC70]
  0x004764E5    8b f8                                            mov     edi, eax
  0x004764E7    6a 04                                            push    4; MaxCharCount
  0x004764E9    ba 98 c6 74 04                                   mov     edx, offset byte_474C698; Buf    ; data_refs=[0x0474C698]
  0x004764EE    8b cf                                            mov     ecx, edi; FileHandle
  0x004764F0    e8 5b 89 ff ff                                   call    sub_46EE50    ; code_refs=[0x0046EE50]
  0x004764F5    a1 88 ab a2 04                                   mov     eax, dword_4A2AB88    ; data_refs=[0x04A2AB88]
  0x004764FA    89 1d 80 aa e6 03                                mov     dword_3E6AA80, ebx    ; data_refs=[0x03E6AA80]
  0x00476500    89 1d b0 dd e5 03                                mov     dword_3E5DDB0, ebx    ; data_refs=[0x03E5DDB0]
  0x00476506    a3 90 c6 74 04                                   mov     dword_474C690, eax    ; data_refs=[0x0474C690]
  0x0047650B    3b c3                                            cmp     eax, ebx
  0x0047650D    0f 84 a6 01 00 00                                jz      loc_4766B9    ; code_refs=[0x004766B9]

loc_476513: ; preds=loc_4764B8 succs=loc_476520
  0x00476513    eb 0b                                            jmp     short loc_476520    ; code_refs=[0x00476520]

loc_476520: ; preds=loc_476513,loc_47668F succs=loc_476530
  0x00476520    8b 2d 60 c4 53 00                                mov     ebp, ds:tolower    ; data_refs=[0x0053C460]
  0x00476526    83 c0 08                                         add     eax, 8
  0x00476529    ba c0 2b 8c 04                                   mov     edx, offset byte_48C2BC0    ; data_refs=[0x048C2BC0]
  0x0047652E    2b d0                                            sub     edx, eax

loc_476530: ; preds=loc_476520,loc_476530 succs=loc_47653A,loc_476530
  0x00476530    8a 08                                            mov     cl, [eax]
  0x00476532    88 0c 02                                         mov     [edx+eax], cl
  0x00476535    40                                               inc     eax
  0x00476536    3a cb                                            cmp     cl, bl
  0x00476538    75 f6                                            jnz     short loc_476530    ; code_refs=[0x00476530]

loc_47653A: ; preds=loc_476530 succs=loc_476544
  0x0047653A    b8 c0 2b 8c 04                                   mov     eax, offset byte_48C2BC0    ; data_refs=[0x048C2BC0]
  0x0047653F    33 f6                                            xor     esi, esi
  0x00476541    8d 50 01                                         lea     edx, [eax+1]

loc_476544: ; preds=loc_47653A,loc_476544 succs=loc_47654B,loc_476544
  0x00476544    8a 08                                            mov     cl, [eax]
  0x00476546    40                                               inc     eax
  0x00476547    3a cb                                            cmp     cl, bl
  0x00476549    75 f9                                            jnz     short loc_476544    ; code_refs=[0x00476544]

loc_47654B: ; preds=loc_476544 succs=loc_47654F,loc_47657D
  0x0047654B    2b c2                                            sub     eax, edx
  0x0047654D    74 2e                                            jz      short loc_47657D    ; code_refs=[0x0047657D]

loc_47654F: ; preds=loc_47654B succs=loc_476550
  0x0047654F    90                                               nop

loc_476550: ; preds=loc_47654F,loc_476577 succs=loc_476570
  0x00476550    0f be 96 c0 2b 8c 04                             movsx   edx, byte_48C2BC0[esi]    ; data_refs=[0x048C2BC0]
  0x00476557    52                                               push    edx; C
  0x00476558    ff d5                                            call    ebp ; tolower    ; code_refs=[0x0053C460]
  0x0047655A    88 86 c0 2b 8c 04                                mov     byte_48C2BC0[esi], al    ; data_refs=[0x048C2BC0]
  0x00476560    b8 c0 2b 8c 04                                   mov     eax, offset byte_48C2BC0    ; data_refs=[0x048C2BC0]
  0x00476565    83 c4 04                                         add     esp, 4
  0x00476568    46                                               inc     esi
  0x00476569    8d 50 01                                         lea     edx, [eax+1]
  0x0047656C    8d 64 24 00                                      lea     esp, [esp+0]

loc_476570: ; preds=loc_476550,loc_476570 succs=loc_476577,loc_476570
  0x00476570    8a 08                                            mov     cl, [eax]
  0x00476572    40                                               inc     eax
  0x00476573    3a cb                                            cmp     cl, bl
  0x00476575    75 f9                                            jnz     short loc_476570    ; code_refs=[0x00476570]

loc_476577: ; preds=loc_476570 succs=loc_476550,loc_47657D
  0x00476577    2b c2                                            sub     eax, edx
  0x00476579    3b f0                                            cmp     esi, eax
  0x0047657B    72 d3                                            jb      short loc_476550    ; code_refs=[0x00476550]

loc_47657D: ; preds=loc_47654B,loc_476577 succs=loc_476585
  0x0047657D    b8 c0 2b 8c 04                                   mov     eax, offset byte_48C2BC0    ; data_refs=[0x048C2BC0]
  0x00476582    8d 50 01                                         lea     edx, [eax+1]

loc_476585: ; preds=loc_47657D,loc_476585 succs=loc_47658C,loc_476585
  0x00476585    8a 08                                            mov     cl, [eax]
  0x00476587    40                                               inc     eax
  0x00476588    3a cb                                            cmp     cl, bl
  0x0047658A    75 f9                                            jnz     short loc_476585    ; code_refs=[0x00476585]

loc_47658C: ; preds=loc_476585 succs=loc_4765D0
  0x0047658C    2b c2                                            sub     eax, edx
  0x0047658E    40                                               inc     eax
  0x0047658F    50                                               push    eax; MaxCharCount
  0x00476590    ba c0 2b 8c 04                                   mov     edx, offset byte_48C2BC0; Buf    ; data_refs=[0x048C2BC0]
  0x00476595    8b cf                                            mov     ecx, edi; FileHandle
  0x00476597    e8 b4 88 ff ff                                   call    sub_46EE50    ; code_refs=[0x0046EE50]
  0x0047659C    8b 15 90 c6 74 04                                mov     edx, dword_474C690    ; data_refs=[0x0474C690]
  0x004765A2    6a 04                                            push    4; MaxCharCount
  0x004765A4    81 c2 08 01 00 00                                add     edx, 108h; Buf
  0x004765AA    8b cf                                            mov     ecx, edi; FileHandle
  0x004765AC    e8 9f 88 ff ff                                   call    sub_46EE50    ; code_refs=[0x0046EE50]
  0x004765B1    8b 15 90 c6 74 04                                mov     edx, dword_474C690    ; data_refs=[0x0474C690]
  0x004765B7    6a 04                                            push    4; MaxCharCount
  0x004765B9    81 c2 10 01 00 00                                add     edx, 110h; Buf
  0x004765BF    8b cf                                            mov     ecx, edi; FileHandle
  0x004765C1    e8 8a 88 ff ff                                   call    sub_46EE50    ; code_refs=[0x0046EE50]
  0x004765C6    b8 c0 2b 8c 04                                   mov     eax, offset byte_48C2BC0    ; data_refs=[0x048C2BC0]
  0x004765CB    8d 48 01                                         lea     ecx, [eax+1]
  0x004765CE    8b ff                                            mov     edi, edi

loc_4765D0: ; preds=loc_47658C,loc_4765D0 succs=loc_4765D7,loc_4765D0
  0x004765D0    8a 10                                            mov     dl, [eax]
  0x004765D2    40                                               inc     eax
  0x004765D3    3a d3                                            cmp     dl, bl
  0x004765D5    75 f9                                            jnz     short loc_4765D0    ; code_refs=[0x004765D0]

loc_4765D7: ; preds=loc_4765D0 succs=loc_4765EA,loc_476610
  0x004765D7    2b c1                                            sub     eax, ecx
  0x004765D9    8d 48 01                                         lea     ecx, [eax+1]
  0x004765DC    a1 80 aa e6 03                                   mov     eax, dword_3E6AA80    ; data_refs=[0x03E6AA80]
  0x004765E1    ba c0 2b 8c 04                                   mov     edx, offset byte_48C2BC0    ; data_refs=[0x048C2BC0]
  0x004765E6    3b cb                                            cmp     ecx, ebx
  0x004765E8    74 26                                            jz      short loc_476610    ; code_refs=[0x00476610]

loc_4765EA: ; preds=loc_4765D7 succs=loc_4765F0
  0x004765EA    8d 9b 00 00 00 00                                lea     ebx, [ebx+0]

loc_4765F0: ; preds=loc_4765EA,loc_4765F0 succs=loc_47660B,loc_4765F0
  0x004765F0    0f be 32                                         movsx   esi, byte ptr [edx]
  0x004765F3    33 f0                                            xor     esi, eax
  0x004765F5    81 e6 ff 00 00 00                                and     esi, 0FFh
  0x004765FB    c1 e8 08                                         shr     eax, 8
  0x004765FE    33 04 b5 c0 27 8c 04                             xor     eax, dword_48C27C0[esi*4]    ; data_refs=[0x048C27C0]
  0x00476605    49                                               dec     ecx
  0x00476606    42                                               inc     edx
  0x00476607    3b cb                                            cmp     ecx, ebx
  0x00476609    75 e5                                            jnz     short loc_4765F0    ; code_refs=[0x004765F0]

loc_47660B: ; preds=loc_4765F0 succs=loc_476610
  0x0047660B    a3 80 aa e6 03                                   mov     dword_3E6AA80, eax    ; data_refs=[0x03E6AA80]

loc_476610: ; preds=loc_4765D7,loc_47660B succs=loc_476621
  0x00476610    8b 35 90 c6 74 04                                mov     esi, dword_474C690    ; data_refs=[0x0474C690]
  0x00476616    b9 04 00 00 00                                   mov     ecx, 4
  0x0047661B    8d 96 08 01 00 00                                lea     edx, [esi+108h]

loc_476621: ; preds=loc_476610,loc_476621 succs=loc_476641,loc_476621
  0x00476621    0f be 2a                                         movsx   ebp, byte ptr [edx]
  0x00476624    33 e8                                            xor     ebp, eax
  0x00476626    81 e5 ff 00 00 00                                and     ebp, 0FFh
  0x0047662C    c1 e8 08                                         shr     eax, 8
  0x0047662F    33 04 ad c0 27 8c 04                             xor     eax, dword_48C27C0[ebp*4]    ; data_refs=[0x048C27C0]
  0x00476636    49                                               dec     ecx
  0x00476637    42                                               inc     edx
  0x00476638    a3 80 aa e6 03                                   mov     dword_3E6AA80, eax    ; data_refs=[0x03E6AA80]
  0x0047663D    3b cb                                            cmp     ecx, ebx
  0x0047663F    75 e0                                            jnz     short loc_476621    ; code_refs=[0x00476621]

loc_476641: ; preds=loc_476621 succs=loc_476650
  0x00476641    b9 04 00 00 00                                   mov     ecx, 4
  0x00476646    8d 96 10 01 00 00                                lea     edx, [esi+110h]
  0x0047664C    8d 64 24 00                                      lea     esp, [esp+0]

loc_476650: ; preds=loc_476641,loc_476650 succs=loc_476670,loc_476650
  0x00476650    0f be 2a                                         movsx   ebp, byte ptr [edx]
  0x00476653    33 e8                                            xor     ebp, eax
  0x00476655    81 e5 ff 00 00 00                                and     ebp, 0FFh
  0x0047665B    c1 e8 08                                         shr     eax, 8
  0x0047665E    33 04 ad c0 27 8c 04                             xor     eax, dword_48C27C0[ebp*4]    ; data_refs=[0x048C27C0]
  0x00476665    49                                               dec     ecx
  0x00476666    42                                               inc     edx
  0x00476667    a3 80 aa e6 03                                   mov     dword_3E6AA80, eax    ; data_refs=[0x03E6AA80]
  0x0047666C    3b cb                                            cmp     ecx, ebx
  0x0047666E    75 e0                                            jnz     short loc_476650    ; code_refs=[0x00476650]

loc_476670: ; preds=loc_476650 succs=loc_47667A,loc_47668F
  0x00476670    8b 0d b0 dd e5 03                                mov     ecx, dword_3E5DDB0    ; data_refs=[0x03E5DDB0]
  0x00476676    3b cb                                            cmp     ecx, ebx
  0x00476678    74 15                                            jz      short loc_47668F    ; code_refs=[0x0047668F]

loc_47667A: ; preds=loc_476670 succs=loc_47668F
  0x0047667A    68 58 0f 00 00                                   push    0F58h
  0x0047667F    ba 50 f3 53 00                                   mov     edx, offset aShareclientsev_4; "..\\ShareClientSeverCode\\Inter.cpp"    ; data_refs=[0x0053F350]
  0x00476684    e8 27 4b 0b 00                                   call    sub_52B1B0    ; code_refs=[0x0052B1B0]
  0x00476689    8b 35 90 c6 74 04                                mov     esi, dword_474C690    ; data_refs=[0x0474C690]

loc_47668F: ; preds=loc_476670,loc_47667A succs=loc_476520,loc_4766A6
  0x0047668F    8b ce                                            mov     ecx, esi
  0x00476691    89 0d b0 dd e5 03                                mov     dword_3E5DDB0, ecx    ; data_refs=[0x03E5DDB0]
  0x00476697    8b 06                                            mov     eax, [esi]
  0x00476699    a3 90 c6 74 04                                   mov     dword_474C690, eax    ; data_refs=[0x0474C690]
  0x0047669E    3b c3                                            cmp     eax, ebx
  0x004766A0    0f 85 7a fe ff ff                                jnz     loc_476520    ; code_refs=[0x00476520]

loc_4766A6: ; preds=loc_47668F succs=loc_4766AA,loc_4766B9
  0x004766A6    3b cb                                            cmp     ecx, ebx
  0x004766A8    74 0f                                            jz      short loc_4766B9    ; code_refs=[0x004766B9]

loc_4766AA: ; preds=loc_4766A6 succs=loc_4766B9
  0x004766AA    68 5b 0f 00 00                                   push    0F5Bh
  0x004766AF    ba 50 f3 53 00                                   mov     edx, offset aShareclientsev_4; "..\\ShareClientSeverCode\\Inter.cpp"    ; data_refs=[0x0053F350]
  0x004766B4    e8 f7 4a 0b 00                                   call    sub_52B1B0    ; code_refs=[0x0052B1B0]

loc_4766B9: ; preds=loc_4764B8,loc_4766A6,loc_4766AA succs=loc_46EFD0
  0x004766B9    53                                               push    ebx; Origin
  0x004766BA    33 d2                                            xor     edx, edx; Offset
  0x004766BC    8b cf                                            mov     ecx, edi; FileHandle
  0x004766BE    e8 6d 88 ff ff                                   call    sub_46EF30    ; code_refs=[0x0046EF30]
  0x004766C3    6a 04                                            push    4; MaxCharCount
  0x004766C5    ba 80 aa e6 03                                   mov     edx, offset dword_3E6AA80; Buf    ; data_refs=[0x03E6AA80]
  0x004766CA    8b cf                                            mov     ecx, edi; FileHandle
  0x004766CC    e8 7f 87 ff ff                                   call    sub_46EE50    ; code_refs=[0x0046EE50]
  0x004766D1    8b cf                                            mov     ecx, edi; FileHandle
  0x004766D3    5f                                               pop     edi
  0x004766D4    5e                                               pop     esi
  0x004766D5    5d                                               pop     ebp
  0x004766D6    5b                                               pop     ebx
  0x004766D7    83 c4 04                                         add     esp, 4
  0x004766DA    e9 f1 88 ff ff                                   jmp     sub_46EFD0    ; code_refs=[0x0046EFD0]
; END_FUNC 0x00476310 sub_476310


; ======================================================================================================================
; FUNC 0x00488EA0 sub_488EA0 size=1381 segment=.text
; STRINGS:
;   0x00564490 'N'
;   0x005413D0 ' %s'
;   0x005413CC '-r'
;   0x0053F350 '..\\ShareClientSeverCode\\Inter.cpp'
;   0x0053DD9C 'mbc\\'
;   0x005413C0 '__debug.mbc'
;   0x0053ED94 'Unloading _main: %s:%d\n'
;   0x00442800 '^'
;   0x005413B4 'mbc\\*.mbc'
;   0x005413B8 '*.mbc'
;   0x005413BC 'c'
;   0x005413A8 'Null tag %s'
;   0x00541398 'connectn.cfg'
;   0x00541390 'PORT'
;   0x00541388 '_main'
;   0x00541364 "MBInter: Process '_main' not found"
;   0x00479430 'Q'
;   0x0055F7F0 'i'
;   0x00558774 '"'
; ----------------------------------------------------------------------------------------------------------------------

loc_488EA0: ; preds= succs=loc_488F1E,loc_488F28
  0x00488EA0    6a ff                                            push    0FFFFFFFFh
  0x00488EA2    68 8c 0d 53 00                                   push    offset SEH_448EA0    ; data_refs=[0x00530D8C]
  0x00488EA7    64 a1 00 00 00 00                                mov     eax, large fs:0
  0x00488EAD    50                                               push    eax
  0x00488EAE    81 ec b0 01 00 00                                sub     esp, 1B0h
  0x00488EB4    a1 90 44 56 00                                   mov     eax, dword_564490    ; data_refs=[0x00564490]
  0x00488EB9    33 c4                                            xor     eax, esp
  0x00488EBB    89 84 24 ac 01 00 00                             mov     [esp+1BCh+var_10], eax
  0x00488EC2    53                                               push    ebx
  0x00488EC3    55                                               push    ebp
  0x00488EC4    56                                               push    esi
  0x00488EC5    57                                               push    edi
  0x00488EC6    a1 90 44 56 00                                   mov     eax, dword_564490    ; data_refs=[0x00564490]
  0x00488ECB    33 c4                                            xor     eax, esp
  0x00488ECD    50                                               push    eax
  0x00488ECE    8d 84 24 c4 01 00 00                             lea     eax, [esp+1D0h+var_C]
  0x00488ED5    64 a3 00 00 00 00                                mov     large fs:0, eax
  0x00488EDB    ff 15 f8 c5 53 00                                call    ds:timeGetTime    ; code_refs=[0x0053C5F8] data_refs=[0x0053C5F8]
  0x00488EE1    50                                               push    eax; Seed
  0x00488EE2    ff 15 70 c4 53 00                                call    ds:srand    ; code_refs=[0x0053C470] data_refs=[0x0053C470]
  0x00488EE8    83 c4 04                                         add     esp, 4
  0x00488EEB    e8 50 b7 fe ff                                   call    sub_474640    ; code_refs=[0x00474640]
  0x00488EF0    68 f8 e1 e5 03                                   push    offset String1    ; data_refs=[0x03E5E1F8]
  0x00488EF5    68 d0 13 54 00                                   push    offset aS_1; " %s"    ; data_refs=[0x005413D0]
  0x00488EFA    68 18 fc a6 04                                   push    offset byte_4A6FC18; Buffer    ; data_refs=[0x04A6FC18]
  0x00488EFF    ff 15 dc c3 53 00                                call    ds:sscanf    ; code_refs=[0x0053C3DC] data_refs=[0x0053C3DC]
  0x00488F05    6a 02                                            push    2; MaxCount
  0x00488F07    68 cc 13 54 00                                   push    offset String2; "-r"    ; data_refs=[0x005413CC]
  0x00488F0C    68 f8 e1 e5 03                                   push    offset String1; String1    ; data_refs=[0x03E5E1F8]
  0x00488F11    ff 15 b8 c2 53 00                                call    ds:_strnicmp    ; code_refs=[0x0053C2B8] data_refs=[0x0053C2B8]
  0x00488F17    83 c4 18                                         add     esp, 18h
  0x00488F1A    85 c0                                            test    eax, eax
  0x00488F1C    75 0a                                            jnz     short loc_488F28    ; code_refs=[0x00488F28]

loc_488F1E: ; preds=loc_488EA0 succs=loc_488F28
  0x00488F1E    c7 05 44 ab a2 04 01 00 00 00                    mov     dword_4A2AB44, 1    ; data_refs=[0x04A2AB44]

loc_488F28: ; preds=loc_488EA0,loc_488F1E succs=loc_488F45,loc_488F53
  0x00488F28    ba e2 0f 00 00                                   mov     edx, 0FE2h
  0x00488F2D    b9 50 f3 53 00                                   mov     ecx, offset aShareclientsev_4; "..\\ShareClientSeverCode\\Inter.cpp"    ; data_refs=[0x0053F350]
  0x00488F32    e8 19 1f 0a 00                                   call    sub_52AE50    ; code_refs=[0x0052AE50]
  0x00488F37    8b 0d 40 ab a2 04                                mov     ecx, lpParameter    ; data_refs=[0x04A2AB40]
  0x00488F3D    33 db                                            xor     ebx, ebx
  0x00488F3F    8b f1                                            mov     esi, ecx
  0x00488F41    3b cb                                            cmp     ecx, ebx
  0x00488F43    74 0e                                            jz      short loc_488F53    ; code_refs=[0x00488F53]

loc_488F45: ; preds=loc_488F28 succs=loc_488F53
  0x00488F45    e8 86 5f fd ff                                   call    sub_45EED0    ; code_refs=[0x0045EED0]
  0x00488F4A    56                                               push    esi
  0x00488F4B    e8 60 2b 0a 00                                   call    sub_52BAB0    ; code_refs=[0x0052BAB0]
  0x00488F50    83 c4 04                                         add     esp, 4

loc_488F53: ; preds=loc_488F28,loc_488F45 succs=loc_488F7E,loc_488F87
  0x00488F53    ba e3 0f 00 00                                   mov     edx, 0FE3h
  0x00488F58    b9 50 f3 53 00                                   mov     ecx, offset aShareclientsev_4; "..\\ShareClientSeverCode\\Inter.cpp"    ; data_refs=[0x0053F350]
  0x00488F5D    e8 ee 1e 0a 00                                   call    sub_52AE50    ; code_refs=[0x0052AE50]
  0x00488F62    68 bc 37 00 00                                   push    37BCh; Size
  0x00488F67    e8 c4 2b 0a 00                                   call    sub_52BB30    ; code_refs=[0x0052BB30]
  0x00488F6C    83 c4 04                                         add     esp, 4
  0x00488F6F    89 44 24 14                                      mov     [esp+1D0h+DstBuf], eax
  0x00488F73    89 9c 24 cc 01 00 00                             mov     [esp+1D0h+var_4], ebx
  0x00488F7A    3b c3                                            cmp     eax, ebx
  0x00488F7C    74 09                                            jz      short loc_488F87    ; code_refs=[0x00488F87]

loc_488F7E: ; preds=loc_488F53 succs=loc_488F89
  0x00488F7E    8b c8                                            mov     ecx, eax
  0x00488F80    e8 1b 5f fd ff                                   call    sub_45EEA0    ; code_refs=[0x0045EEA0]
  0x00488F85    eb 02                                            jmp     short loc_488F89    ; code_refs=[0x00488F89]

loc_488F87: ; preds=loc_488F53 succs=loc_488F89
  0x00488F87    33 c0                                            xor     eax, eax

loc_488F89: ; preds=loc_488F7E,loc_488F87 succs=loc_488FB8,loc_488FC6
  0x00488F89    83 cd ff                                         or      ebp, 0FFFFFFFFh
  0x00488F8C    89 ac 24 cc 01 00 00                             mov     [esp+1D0h+var_4], ebp
  0x00488F93    a3 40 ab a2 04                                   mov     lpParameter, eax    ; data_refs=[0x04A2AB40]
  0x00488F98    e8 43 a7 ff ff                                   call    sub_4836E0    ; code_refs=[0x004836E0]
  0x00488F9D    ba f1 0f 00 00                                   mov     edx, 0FF1h
  0x00488FA2    b9 50 f3 53 00                                   mov     ecx, offset aShareclientsev_4; "..\\ShareClientSeverCode\\Inter.cpp"    ; data_refs=[0x0053F350]
  0x00488FA7    e8 a4 1e 0a 00                                   call    sub_52AE50    ; code_refs=[0x0052AE50]
  0x00488FAC    8b 0d 00 d2 e6 03                                mov     ecx, dword_3E6D200    ; data_refs=[0x03E6D200]
  0x00488FB2    8b f1                                            mov     esi, ecx
  0x00488FB4    3b cb                                            cmp     ecx, ebx
  0x00488FB6    74 0e                                            jz      short loc_488FC6    ; code_refs=[0x00488FC6]

loc_488FB8: ; preds=loc_488F89 succs=loc_488FC6
  0x00488FB8    e8 e3 07 04 00                                   call    sub_4C97A0    ; code_refs=[0x004C97A0]
  0x00488FBD    56                                               push    esi
  0x00488FBE    e8 ed 2a 0a 00                                   call    sub_52BAB0    ; code_refs=[0x0052BAB0]
  0x00488FC3    83 c4 04                                         add     esp, 4

loc_488FC6: ; preds=loc_488F89,loc_488FB8 succs=loc_488FF5,loc_489003
  0x00488FC6    ba f5 0f 00 00                                   mov     edx, 0FF5h
  0x00488FCB    b9 50 f3 53 00                                   mov     ecx, offset aShareclientsev_4; "..\\ShareClientSeverCode\\Inter.cpp"    ; data_refs=[0x0053F350]
  0x00488FD0    e8 7b 1e 0a 00                                   call    sub_52AE50    ; code_refs=[0x0052AE50]
  0x00488FD5    68 9c 0c 02 00                                   push    20C9Ch; Size
  0x00488FDA    e8 51 2b 0a 00                                   call    sub_52BB30    ; code_refs=[0x0052BB30]
  0x00488FDF    83 c4 04                                         add     esp, 4
  0x00488FE2    89 44 24 14                                      mov     [esp+1D0h+DstBuf], eax
  0x00488FE6    c7 84 24 cc 01 00 00 01 00 00 00                 mov     [esp+1D0h+var_4], 1
  0x00488FF1    3b c3                                            cmp     eax, ebx
  0x00488FF3    74 0e                                            jz      short loc_489003    ; code_refs=[0x00489003]

loc_488FF5: ; preds=loc_488FC6 succs=loc_489005
  0x00488FF5    68 9c dd 53 00                                   push    offset aMbc; "mbc\\"    ; data_refs=[0x0053DD9C]
  0x00488FFA    8b c8                                            mov     ecx, eax
  0x00488FFC    e8 7f 09 04 00                                   call    sub_4C9980    ; code_refs=[0x004C9980]
  0x00489001    eb 02                                            jmp     short loc_489005    ; code_refs=[0x00489005]

loc_489003: ; preds=loc_488FC6 succs=loc_489005
  0x00489003    33 c0                                            xor     eax, eax

loc_489005: ; preds=loc_488FF5,loc_489003 succs=loc_489042
  0x00489005    53                                               push    ebx; Offset
  0x00489006    68 c0 13 54 00                                   push    offset aDebugMbc; "__debug.mbc"    ; data_refs=[0x005413C0]
  0x0048900B    8b c8                                            mov     ecx, eax
  0x0048900D    89 ac 24 d4 01 00 00                             mov     [esp+1D8h+var_4], ebp
  0x00489014    a3 00 d2 e6 03                                   mov     dword_3E6D200, eax    ; data_refs=[0x03E6D200]
  0x00489019    e8 12 08 04 00                                   call    sub_4C9830    ; code_refs=[0x004C9830]
  0x0048901E    e8 0d a7 fe ff                                   call    sub_473730    ; code_refs=[0x00473730]
  0x00489023    89 2d f0 e1 e5 03                                mov     dword_3E5E1F0, ebp    ; data_refs=[0x03E5E1F0]
  0x00489029    89 2d 94 c6 74 04                                mov     dword_474C694, ebp    ; data_refs=[0x0474C694]
  0x0048902F    89 2d c8 d2 6f 00                                mov     dword_6FD2C8, ebp    ; data_refs=[0x006FD2C8]
  0x00489035    89 2d f4 e1 e5 03                                mov     dword_3E5E1F4, ebp    ; data_refs=[0x03E5E1F4]
  0x0048903B    e8 b0 f2 fe ff                                   call    sub_4782F0    ; code_refs=[0x004782F0]
  0x00489040    33 f6                                            xor     esi, esi

loc_489042: ; preds=loc_489005,loc_489092 succs=loc_48907B,loc_489092
  0x00489042    8b fe                                            mov     edi, esi
  0x00489044    69 ff 48 03 00 00                                imul    edi, 348h
  0x0048904A    68 fc 00 00 00                                   push    0FCh; Size
  0x0048904F    8d 87 48 67 9c 00                                lea     eax, unk_9C6748[edi]    ; data_refs=[0x009C6748]
  0x00489055    53                                               push    ebx; Val
  0x00489056    50                                               push    eax; void *
  0x00489057    89 b7 dc 65 9c 00                                mov     dword_9C65DC[edi], esi    ; data_refs=[0x009C65DC]
  0x0048905D    89 b7 e0 65 9c 00                                mov     dword_9C65E0[edi], esi    ; data_refs=[0x009C65E0]
  0x00489063    89 b7 3c 66 9c 00                                mov     dword_9C663C[edi], esi    ; data_refs=[0x009C663C]
  0x00489069    89 b7 38 66 9c 00                                mov     dword_9C6638[edi], esi    ; data_refs=[0x009C6638]
  0x0048906F    e8 26 54 0a 00                                   call    memset    ; code_refs=[0x0052E49A]
  0x00489074    83 c4 0c                                         add     esp, 0Ch
  0x00489077    3b f3                                            cmp     esi, ebx
  0x00489079    75 17                                            jnz     short loc_489092    ; code_refs=[0x00489092]

loc_48907B: ; preds=loc_489042 succs=loc_489092
  0x0048907B    68 0b 10 00 00                                   push    100Bh
  0x00489080    68 50 f3 53 00                                   push    offset aShareclientsev_4; "..\\ShareClientSeverCode\\Inter.cpp"    ; data_refs=[0x0053F350]
  0x00489085    68 94 ed 53 00                                   push    offset aUnloadingMainS_0; "Unloading _main: %s:%d\n"    ; data_refs=[0x0053ED94]
  0x0048908A    e8 31 2c 00 00                                   call    sub_48BCC0    ; code_refs=[0x0048BCC0]
  0x0048908F    83 c4 0c                                         add     esp, 0Ch

loc_489092: ; preds=loc_489042,loc_48907B succs=loc_489042,loc_4890A8
  0x00489092    8b ce                                            mov     ecx, esi
  0x00489094    e8 97 ca fe ff                                   call    sub_475B30    ; code_refs=[0x00475B30]
  0x00489099    46                                               inc     esi
  0x0048909A    89 af 24 66 9c 00                                mov     dword_9C6624[edi], ebp    ; data_refs=[0x009C6624]
  0x004890A0    81 fe 00 00 01 00                                cmp     esi, 10000h
  0x004890A6    72 9a                                            jb      short loc_489042    ; code_refs=[0x00489042]

loc_4890A8: ; preds=loc_489092 succs=loc_489110
  0x004890A8    be 01 00 00 00                                   mov     esi, 1
  0x004890AD    68 6a ce 53 00                                   push    offset name    ; data_refs=[0x0053CE6A]
  0x004890B2    b9 80 ec a2 04                                   mov     ecx, offset byte_4A2EC80    ; data_refs=[0x04A2EC80]
  0x004890B7    89 1d 70 65 e4 03                                mov     dword_3E46570, ebx    ; data_refs=[0x03E46570]
  0x004890BD    89 1d f0 e1 e5 03                                mov     dword_3E5E1F0, ebx    ; data_refs=[0x03E5E1F0]
  0x004890C3    89 1d 94 c6 74 04                                mov     dword_474C694, ebx    ; data_refs=[0x0474C694]
  0x004890C9    89 1d 08 d4 6f 00                                mov     dword_6FD408, ebx    ; data_refs=[0x006FD408]
  0x004890CF    89 1d 98 d1 e6 03                                mov     dword_3E6D198, ebx    ; data_refs=[0x03E6D198]
  0x004890D5    89 2d 68 f7 55 00                                mov     dword_55F768, ebp    ; data_refs=[0x0055F768]
  0x004890DB    89 1d b8 e1 e5 03                                mov     dword_3E5E1B8, ebx    ; data_refs=[0x03E5E1B8]
  0x004890E1    c7 05 04 d2 e6 03 00 28 44 00                    mov     dword_3E6D204, offset loc_442800    ; data_refs=[0x00442800,0x03E6D204]
  0x004890EB    88 1d c8 e1 e5 03                                mov     byte_3E5E1C8, bl    ; data_refs=[0x03E5E1C8]
  0x004890F1    89 35 04 1c 86 00                                mov     dword_861C04, esi    ; data_refs=[0x00861C04]
  0x004890F7    89 1d 08 b2 74 04                                mov     dword_474B208, ebx    ; data_refs=[0x0474B208]
  0x004890FD    89 2d 0c 02 56 00                                mov     dword_56020C, ebp    ; data_refs=[0x0056020C]
  0x00489103    e8 68 84 fb ff                                   call    sub_441570    ; code_refs=[0x00441570]
  0x00489108    89 1d 24 b6 a8 04                                mov     dword_4A8B624, ebx    ; data_refs=[0x04A8B624]
  0x0048910E    33 c0                                            xor     eax, eax

loc_489110: ; preds=loc_4890A8,loc_489110 succs=loc_489126,loc_489110
  0x00489110    c7 80 c0 2f 6a 00 04 00 00 00                    mov     dword_6A2FC0[eax], 4    ; data_refs=[0x006A2FC0]
  0x0048911A    05 98 03 00 00                                   add     eax, 398h
  0x0048911F    3d 80 9d 05 00                                   cmp     eax, 59D80h
  0x00489124    72 ea                                            jb      short loc_489110    ; code_refs=[0x00489110]

loc_489126: ; preds=loc_489110 succs=loc_489190
  0x00489126    68 90 01 00 00                                   push    190h; Size
  0x0048912B    53                                               push    ebx; Val
  0x0048912C    68 5c cd 6f 00                                   push    offset unk_6FCD5C; void *    ; data_refs=[0x006FCD5C]
  0x00489131    c7 05 14 d1 6f 00 90 01 00 00                    mov     dword_6FD114, 190h    ; data_refs=[0x006FD114]
  0x0048913B    89 2d 54 cd 6f 00                                mov     dword_6FCD54, ebp    ; data_refs=[0x006FCD54]
  0x00489141    c7 05 40 cd 6f 00 02 00 00 00                    mov     dword_6FCD40, 2    ; data_refs=[0x006FCD40]
  0x0048914B    89 35 30 cd 6f 00                                mov     dword_6FCD30, esi    ; data_refs=[0x006FCD30]
  0x00489151    89 1d 58 cd 6f 00                                mov     dword_6FCD58, ebx    ; data_refs=[0x006FCD58]
  0x00489157    89 1d f0 ce 6f 00                                mov     dword_6FCEF0, ebx    ; data_refs=[0x006FCEF0]
  0x0048915D    e8 38 53 0a 00                                   call    memset    ; code_refs=[0x0052E49A]
  0x00489162    68 90 01 00 00                                   push    190h; Size
  0x00489167    53                                               push    ebx; Val
  0x00489168    68 f4 ce 6f 00                                   push    offset unk_6FCEF4; void *    ; data_refs=[0x006FCEF4]
  0x0048916D    e8 28 53 0a 00                                   call    memset    ; code_refs=[0x0052E49A]
  0x00489172    83 c4 18                                         add     esp, 18h
  0x00489175    89 2d ec ce 6f 00                                mov     dword_6FCEEC, ebp    ; data_refs=[0x006FCEEC]
  0x0048917B    89 2d 84 d0 6f 00                                mov     dword_6FD084, ebp    ; data_refs=[0x006FD084]
  0x00489181    33 c0                                            xor     eax, eax
  0x00489183    eb 0b                                            jmp     short loc_489190    ; code_refs=[0x00489190]

loc_489190: ; preds=loc_489126,loc_489190 succs=loc_4891A2,loc_489190
  0x00489190    88 98 08 32 e7 03                                mov     byte_3E73208[eax], bl    ; data_refs=[0x03E73208]
  0x00489196    05 d8 08 00 00                                   add     eax, 8D8h
  0x0048919B    3d 00 80 8d 00                                   cmp     eax, offset unk_8D8000    ; data_refs=[0x008D8000]
  0x004891A0    72 ee                                            jb      short loc_489190    ; code_refs=[0x00489190]

loc_4891A2: ; preds=loc_489190 succs=loc_4891EB,loc_4892DE
  0x004891A2    8b 0d b4 13 54 00                                mov     ecx, ds:dword_5413B4    ; data_refs=[0x005413B4]
  0x004891A8    8b 15 b8 13 54 00                                mov     edx, ds:dword_5413B8    ; data_refs=[0x005413B8]
  0x004891AE    66 a1 bc 13 54 00                                mov     ax, ds:word_5413BC    ; data_refs=[0x005413BC]
  0x004891B4    89 8c 24 40 01 00 00                             mov     dword ptr [esp+1D0h+FileName], ecx
  0x004891BB    8d 4c 24 18                                      lea     ecx, [esp+1D0h+FindData]
  0x004891BF    89 94 24 44 01 00 00                             mov     [esp+1D0h+var_8C], edx
  0x004891C6    51                                               push    ecx; FindData
  0x004891C7    8d 94 24 44 01 00 00                             lea     edx, [esp+1D4h+FileName]
  0x004891CE    52                                               push    edx; FileName
  0x004891CF    66 89 84 24 50 01 00 00                          mov     [esp+1D8h+var_88], ax
  0x004891D7    ff 15 3c c4 53 00                                call    ds:_findfirst64i32    ; code_refs=[0x0053C43C] data_refs=[0x0053C43C]
  0x004891DD    8b e8                                            mov     ebp, eax
  0x004891DF    83 c4 08                                         add     esp, 8
  0x004891E2    83 fd ff                                         cmp     ebp, 0FFFFFFFFh
  0x004891E5    0f 84 f3 00 00 00                                jz      loc_4892DE    ; code_refs=[0x004892DE]

loc_4891EB: ; preds=loc_4891A2 succs=loc_4891F0
  0x004891EB    eb 03                                            jmp     short loc_4891F0    ; code_refs=[0x004891F0]

loc_4891F0: ; preds=loc_4891EB,loc_4892C7 succs=loc_4891FB,loc_4892C7
  0x004891F0    f6 44 24 18 10                                   test    byte ptr [esp+1D0h+FindData.attrib], 10h    ; data_refs=[0x000426F9]
  0x004891F5    0f 85 cc 00 00 00                                jnz     loc_4892C7    ; code_refs=[0x004892C7]

loc_4891FB: ; preds=loc_4891F0 succs=loc_489228,loc_48923F
  0x004891FB    33 d2                                            xor     edx, edx
  0x004891FD    8d 4c 24 3c                                      lea     ecx, [esp+1D0h+FindData.name]; Str    ; data_refs=[0x000426FE]
  0x00489201    e8 3a 58 fe ff                                   call    sub_46EA40    ; code_refs=[0x0046EA40]
  0x00489206    8b f0                                            mov     esi, eax
  0x00489208    53                                               push    ebx; Origin
  0x00489209    ba 14 00 00 00                                   mov     edx, 14h; Offset
  0x0048920E    8b ce                                            mov     ecx, esi; FileHandle
  0x00489210    e8 1b 5d fe ff                                   call    sub_46EF30    ; code_refs=[0x0046EF30]
  0x00489215    6a 04                                            push    4; MaxCharCount
  0x00489217    8d 54 24 18                                      lea     edx, [esp+1D4h+DstBuf]; DstBuf
  0x0048921B    8b ce                                            mov     ecx, esi; FileHandle
  0x0048921D    e8 4e 5b fe ff                                   call    sub_46ED70    ; code_refs=[0x0046ED70]
  0x00489222    39 5c 24 14                                      cmp     [esp+1D0h+DstBuf], ebx
  0x00489226    75 17                                            jnz     short loc_48923F    ; code_refs=[0x0048923F]

loc_489228: ; preds=loc_4891FB succs=loc_48923F
  0x00489228    8d 44 24 3c                                      lea     eax, [esp+1D0h+FindData.name]    ; data_refs=[0x000426FE]
  0x0048922C    50                                               push    eax; ArgList
  0x0048922D    68 a8 13 54 00                                   push    offset aNullTagS; "Null tag %s"    ; data_refs=[0x005413A8]
  0x00489232    68 28 a1 b3 04                                   push    offset unk_4B3A128; void *    ; data_refs=[0x04B3A128]
  0x00489237    e8 f4 1d 05 00                                   call    sub_4DB030    ; code_refs=[0x004DB030]
  0x0048923C    83 c4 0c                                         add     esp, 0Ch

loc_48923F: ; preds=loc_4891FB,loc_489228 succs=loc_489252,loc_489272
  0x0048923F    8b ce                                            mov     ecx, esi; FileHandle
  0x00489241    e8 8a 5d fe ff                                   call    sub_46EFD0    ; code_refs=[0x0046EFD0]
  0x00489246    8b 54 24 14                                      mov     edx, [esp+1D0h+DstBuf]
  0x0048924A    81 fa ff 0f 00 00                                cmp     edx, 0FFFh
  0x00489250    77 20                                            ja      short loc_489272    ; code_refs=[0x00489272]

loc_489252: ; preds=loc_48923F succs=loc_489268
  0x00489252    8b ca                                            mov     ecx, edx
  0x00489254    69 c9 d8 08 00 00                                imul    ecx, 8D8h
  0x0048925A    8d 44 24 3c                                      lea     eax, [esp+1D0h+FindData.name]    ; data_refs=[0x000426FE]
  0x0048925E    8b f0                                            mov     esi, eax
  0x00489260    2b ce                                            sub     ecx, esi
  0x00489262    8d b1 08 32 e7 03                                lea     esi, byte_3E73208[ecx]    ; data_refs=[0x03E73208]

loc_489268: ; preds=loc_489252,loc_489268 succs=loc_489272,loc_489268
  0x00489268    8a 08                                            mov     cl, [eax]
  0x0048926A    88 0c 06                                         mov     [esi+eax], cl
  0x0048926D    40                                               inc     eax
  0x0048926E    3a cb                                            cmp     cl, bl
  0x00489270    75 f6                                            jnz     short loc_489268    ; code_refs=[0x00489268]

loc_489272: ; preds=loc_48923F,loc_489268 succs=loc_489281
  0x00489272    69 d2 d8 08 00 00                                imul    edx, 8D8h
  0x00489278    8d 82 08 32 e7 03                                lea     eax, byte_3E73208[edx]    ; data_refs=[0x03E73208]
  0x0048927E    8d 78 01                                         lea     edi, [eax+1]

loc_489281: ; preds=loc_489272,loc_489281 succs=loc_489288,loc_489281
  0x00489281    8a 08                                            mov     cl, [eax]
  0x00489283    40                                               inc     eax
  0x00489284    3a cb                                            cmp     cl, bl
  0x00489286    75 f9                                            jnz     short loc_489281    ; code_refs=[0x00489281]

loc_489288: ; preds=loc_489281 succs=loc_489295,loc_4892B6
  0x00489288    2b c7                                            sub     eax, edi
  0x0048928A    48                                               dec     eax
  0x0048928B    80 bc 02 08 32 e7 03 5c                          cmp     byte_3E73208[edx+eax], 5Ch ; '\'    ; data_refs=[0x03E73208]
  0x00489293    74 21                                            jz      short loc_4892B6    ; code_refs=[0x004892B6]

loc_489295: ; preds=loc_489288 succs=loc_4892A0
  0x00489295    8a 8c 02 08 32 e7 03                             mov     cl, byte_3E73208[edx+eax]    ; data_refs=[0x03E73208]
  0x0048929C    8d 64 24 00                                      lea     esp, [esp+0]

loc_4892A0: ; preds=loc_489295,loc_4892A9 succs=loc_4892A5,loc_4892B6
  0x004892A0    80 f9 2e                                         cmp     cl, 2Eh ; '.'
  0x004892A3    74 11                                            jz      short loc_4892B6    ; code_refs=[0x004892B6]

loc_4892A5: ; preds=loc_4892A0 succs=loc_4892A9,loc_4892B6
  0x004892A5    3b c3                                            cmp     eax, ebx
  0x004892A7    7e 0d                                            jle     short loc_4892B6    ; code_refs=[0x004892B6]

loc_4892A9: ; preds=loc_4892A5 succs=loc_4892A0,loc_4892B6
  0x004892A9    8a 8c 02 07 32 e7 03                             mov     cl, byte_3E73207[edx+eax]    ; data_refs=[0x03E73207]
  0x004892B0    48                                               dec     eax
  0x004892B1    80 f9 5c                                         cmp     cl, 5Ch ; '\'
  0x004892B4    75 ea                                            jnz     short loc_4892A0    ; code_refs=[0x004892A0]

loc_4892B6: ; preds=loc_489288,loc_4892A0,loc_4892A5,loc_4892A9 succs=loc_4892C0,loc_4892C7
  0x004892B6    80 bc 02 08 32 e7 03 2e                          cmp     byte_3E73208[edx+eax], 2Eh ; '.'    ; data_refs=[0x03E73208]
  0x004892BE    75 07                                            jnz     short loc_4892C7    ; code_refs=[0x004892C7]

loc_4892C0: ; preds=loc_4892B6 succs=loc_4892C7
  0x004892C0    88 9c 02 08 32 e7 03                             mov     byte_3E73208[edx+eax], bl    ; data_refs=[0x03E73208]

loc_4892C7: ; preds=loc_4891F0,loc_4892B6,loc_4892C0 succs=loc_4891F0,loc_4892DE
  0x004892C7    8d 54 24 18                                      lea     edx, [esp+1D0h+FindData]
  0x004892CB    52                                               push    edx; FindData
  0x004892CC    55                                               push    ebp; FindHandle
  0x004892CD    ff 15 38 c4 53 00                                call    ds:_findnext64i32    ; code_refs=[0x0053C438] data_refs=[0x0053C438]
  0x004892D3    83 c4 08                                         add     esp, 8
  0x004892D6    85 c0                                            test    eax, eax
  0x004892D8    0f 84 12 ff ff ff                                jz      loc_4891F0    ; code_refs=[0x004891F0]

loc_4892DE: ; preds=loc_4891A2,loc_4892C7 succs=loc_48931C,loc_489326
  0x004892DE    55                                               push    ebp; FindHandle
  0x004892DF    ff 15 34 c4 53 00                                call    ds:_findclose    ; code_refs=[0x0053C434] data_refs=[0x0053C434]
  0x004892E5    83 c4 04                                         add     esp, 4
  0x004892E8    b9 08 ac a2 04                                   mov     ecx, offset unk_4A2AC08; void *    ; data_refs=[0x04A2AC08]
  0x004892ED    e8 5e 8b fd ff                                   call    sub_461E50    ; code_refs=[0x00461E50]
  0x004892F2    b9 98 13 54 00                                   mov     ecx, offset aConnectnCfg; "connectn.cfg"    ; data_refs=[0x00541398]
  0x004892F7    e8 d4 ed ff ff                                   call    sub_4880D0    ; code_refs=[0x004880D0]
  0x004892FC    ba 40 f7 55 00                                   mov     edx, offset hostshort    ; data_refs=[0x0055F740]
  0x00489301    b9 90 13 54 00                                   mov     ecx, offset aPort; "PORT"    ; data_refs=[0x00541390]
  0x00489306    e8 55 ef ff ff                                   call    sub_488260    ; code_refs=[0x00488260]
  0x0048930B    33 d2                                            xor     edx, edx
  0x0048930D    b9 88 13 54 00                                   mov     ecx, offset aMain; "_main"    ; data_refs=[0x00541388]
  0x00489312    e8 19 bd fe ff                                   call    sub_475030    ; code_refs=[0x00475030]
  0x00489317    83 f8 ff                                         cmp     eax, 0FFFFFFFFh
  0x0048931A    75 0a                                            jnz     short loc_489326    ; code_refs=[0x00489326]

loc_48931C: ; preds=loc_4892DE succs=
  0x0048931C    b9 64 13 54 00                                   mov     ecx, offset aMbinterProcess; "MBInter: Process '_main' not found"    ; data_refs=[0x00541364]
  0x00489321    e8 0a 05 01 00                                   call    sub_499830    ; code_refs=[0x00499830]

loc_489326: ; preds=loc_4892DE succs=loc_489343,loc_489367
  0x00489326    b9 00 01 00 00                                   mov     ecx, 100h
  0x0048932B    b8 30 94 47 00                                   mov     eax, offset sub_479430    ; data_refs=[0x00479430]
  0x00489330    bf b8 dd e5 03                                   mov     edi, offset funcs_48983F    ; data_refs=[0x03E5DDB8]
  0x00489335    f3 ab                                            rep stosd
  0x00489337    8a 0d f0 f7 55 00                                mov     cl, byte_55F7F0    ; data_refs=[0x0055F7F0]
  0x0048933D    33 d2                                            xor     edx, edx
  0x0048933F    3a cb                                            cmp     cl, bl
  0x00489341    74 24                                            jz      short loc_489367    ; code_refs=[0x00489367]

loc_489343: ; preds=loc_489326 succs=loc_489345
  0x00489343    33 c0                                            xor     eax, eax

loc_489345: ; preds=loc_489343,loc_489345 succs=loc_489367,loc_489345
  0x00489345    8b 80 f4 f7 55 00                                mov     eax, off_55F7F4[eax]    ; data_refs=[0x0055F7F4]
  0x0048934B    0f b6 c9                                         movzx   ecx, cl
  0x0048934E    42                                               inc     edx
  0x0048934F    89 04 8d b8 dd e5 03                             mov     funcs_48983F[ecx*4], eax    ; data_refs=[0x03E5DDB8]
  0x00489356    8d 04 d5 00 00 00 00                             lea     eax, ds:0[edx*8]
  0x0048935D    8a 88 f0 f7 55 00                                mov     cl, byte_55F7F0[eax]    ; data_refs=[0x0055F7F0]
  0x00489363    3a cb                                            cmp     cl, bl
  0x00489365    75 de                                            jnz     short loc_489345    ; code_refs=[0x00489345]

loc_489367: ; preds=loc_489326,loc_489345 succs=loc_489371,loc_4893B3
  0x00489367    33 ff                                            xor     edi, edi
  0x00489369    39 1d 64 ab a2 04                                cmp     dword_4A2AB64, ebx    ; data_refs=[0x04A2AB64]
  0x0048936F    76 42                                            jbe     short loc_4893B3    ; code_refs=[0x004893B3]

loc_489371: ; preds=loc_489367 succs=loc_489376
  0x00489371    be 10 2c 8c 04                                   mov     esi, offset unk_48C2C10    ; data_refs=[0x048C2C10]

loc_489376: ; preds=loc_489371,loc_4893A7 succs=loc_48937B,loc_4893A7
  0x00489376    39 5e 0c                                         cmp     [esi+0Ch], ebx
  0x00489379    74 2c                                            jz      short loc_4893A7    ; code_refs=[0x004893A7]

loc_48937B: ; preds=loc_489376 succs=loc_489381,loc_489390
  0x0048937B    8b 0e                                            mov     ecx, [esi]
  0x0048937D    3b cb                                            cmp     ecx, ebx
  0x0048937F    74 0f                                            jz      short loc_489390    ; code_refs=[0x00489390]

loc_489381: ; preds=loc_48937B succs=loc_489390
  0x00489381    68 7a 10 00 00                                   push    107Ah
  0x00489386    ba 50 f3 53 00                                   mov     edx, offset aShareclientsev_4; "..\\ShareClientSeverCode\\Inter.cpp"    ; data_refs=[0x0053F350]
  0x0048938B    e8 20 1e 0a 00                                   call    sub_52B1B0    ; code_refs=[0x0052B1B0]

loc_489390: ; preds=loc_48937B,loc_489381 succs=loc_4893A7
  0x00489390    8b 4e 0c                                         mov     ecx, [esi+0Ch]
  0x00489393    68 7c 10 00 00                                   push    107Ch
  0x00489398    ba 50 f3 53 00                                   mov     edx, offset aShareclientsev_4; "..\\ShareClientSeverCode\\Inter.cpp"    ; data_refs=[0x0053F350]
  0x0048939D    89 1e                                            mov     [esi], ebx
  0x0048939F    e8 0c 1e 0a 00                                   call    sub_52B1B0    ; code_refs=[0x0052B1B0]
  0x004893A4    89 5e 04                                         mov     [esi+4], ebx

loc_4893A7: ; preds=loc_489376,loc_489390 succs=loc_489376,loc_4893B3
  0x004893A7    47                                               inc     edi
  0x004893A8    83 c6 10                                         add     esi, 10h
  0x004893AB    3b 3d 64 ab a2 04                                cmp     edi, dword_4A2AB64    ; data_refs=[0x04A2AB64]
  0x004893B1    72 c3                                            jb      short loc_489376    ; code_refs=[0x00489376]

loc_4893B3: ; preds=loc_489367,loc_4893A7 succs=
  0x004893B3    53                                               push    ebx; Time
  0x004893B4    89 1d 64 ab a2 04                                mov     dword_4A2AB64, ebx    ; data_refs=[0x04A2AB64]
  0x004893BA    ff 15 44 c4 53 00                                call    ds:_time64    ; code_refs=[0x0053C444] data_refs=[0x0053C444]
  0x004893C0    83 c4 04                                         add     esp, 4
  0x004893C3    a3 78 aa e6 03                                   mov     dword_3E6AA78, eax    ; data_refs=[0x03E6AA78]
  0x004893C8    89 15 7c aa e6 03                                mov     dword_3E6AA7C, edx    ; data_refs=[0x03E6AA7C]
  0x004893CE    c7 05 64 f7 55 00 ff ff ff ff                    mov     dword_55F764, 0FFFFFFFFh    ; data_refs=[0x0055F764]
  0x004893D8    e8 63 a8 fe ff                                   call    sub_473C40    ; code_refs=[0x00473C40]
  0x004893DD    8b 8c 24 c4 01 00 00                             mov     ecx, [esp+1D0h+var_C]
  0x004893E4    64 89 0d 00 00 00 00                             mov     large fs:0, ecx
  0x004893EB    59                                               pop     ecx
  0x004893EC    5f                                               pop     edi
  0x004893ED    5e                                               pop     esi
  0x004893EE    5d                                               pop     ebp
  0x004893EF    5b                                               pop     ebx
  0x004893F0    8b 8c 24 ac 01 00 00                             mov     ecx, [esp+1BCh+var_10]
  0x004893F7    33 cc                                            xor     ecx, esp
  0x004893F9    e8 a2 50 0a 00                                   call    sub_52E4A0    ; code_refs=[0x0052E4A0]
  0x004893FE    81 c4 bc 01 00 00                                add     esp, 1BCh
  0x00489404    c3                                               retn

loc_530D70:
  0x00530D70    8b 85 44 fe ff ff                                mov     eax, [ebp-1BCh]
  0x00530D76    50                                               push    eax
  0x00530D77    e8 34 ad ff ff                                   call    sub_52BAB0    ; code_refs=[0x0052BAB0]
  0x00530D7C    59                                               pop     ecx
  0x00530D7D    c3                                               retn

loc_530D7E:
  0x00530D7E    8b 85 44 fe ff ff                                mov     eax, [ebp-1BCh]
  0x00530D84    50                                               push    eax
  0x00530D85    e8 26 ad ff ff                                   call    sub_52BAB0    ; code_refs=[0x0052BAB0]
  0x00530D8A    59                                               pop     ecx
  0x00530D8B    c3                                               retn

loc_530D8C: ; preds= succs=loc_52E5C6
  0x00530D8C    8b 54 24 08                                      mov     edx, [esp+arg_4]
  0x00530D90    8d 82 40 fe ff ff                                lea     eax, [edx-1C0h]
  0x00530D96    8b 8a 3c fe ff ff                                mov     ecx, [edx-1C4h]
  0x00530D9C    33 c8                                            xor     ecx, eax
  0x00530D9E    e8 fd d6 ff ff                                   call    sub_52E4A0    ; code_refs=[0x0052E4A0]
  0x00530DA3    83 c0 10                                         add     eax, 10h
  0x00530DA6    8b 4a fc                                         mov     ecx, [edx-4]
  0x00530DA9    33 c8                                            xor     ecx, eax
  0x00530DAB    e8 f0 d6 ff ff                                   call    sub_52E4A0    ; code_refs=[0x0052E4A0]
  0x00530DB0    b8 74 87 55 00                                   mov     eax, offset stru_558774    ; data_refs=[0x00558774]
  0x00530DB5    e9 0c d8 ff ff                                   jmp     __CxxFrameHandler3    ; code_refs=[0x0052E5C6]
; END_FUNC 0x00488EA0 sub_488EA0


; ======================================================================================================================
; FUNC 0x00499CC0 sub_499CC0 size=2361 segment=.text
; STRINGS:
;   0x00564490 'N'
;   0x00541F6C 'fonts\\font%s.txt'
;   0x00541F5C 'fonts\\font.txt'
;   0x005418E8 '..\\ShareClientSeverCode\\main.cpp'
;   0x00541F1C 'Symbol for CODE_FOR_UNDIFINED_SYMBOL is not found in font.txt'
;   0x00541F00 'wrong format of font1.txt'
; ----------------------------------------------------------------------------------------------------------------------

loc_499CC0: ; preds= succs=loc_499CE7,loc_499D09
  0x00499CC0    81 ec b4 00 00 00                                sub     esp, 0B4h
  0x00499CC6    a1 90 44 56 00                                   mov     eax, dword_564490    ; data_refs=[0x00564490]
  0x00499CCB    33 c4                                            xor     eax, esp
  0x00499CCD    89 84 24 b0 00 00 00                             mov     [esp+0B4h+var_4], eax
  0x00499CD4    a1 ec 35 b3 04                                   mov     eax, dword_4B335EC    ; data_refs=[0x04B335EC]
  0x00499CD9    53                                               push    ebx
  0x00499CDA    55                                               push    ebp
  0x00499CDB    56                                               push    esi
  0x00499CDC    57                                               push    edi
  0x00499CDD    89 4c 24 14                                      mov     [esp+0C4h+var_B0], ecx
  0x00499CE1    8b fa                                            mov     edi, edx
  0x00499CE3    85 c0                                            test    eax, eax
  0x00499CE5    74 22                                            jz      short loc_499D09    ; code_refs=[0x00499D09]

loc_499CE7: ; preds=loc_499CC0 succs=loc_499CEC,loc_499D09
  0x00499CE7    83 f8 01                                         cmp     eax, 1
  0x00499CEA    74 1d                                            jz      short loc_499D09    ; code_refs=[0x00499D09]

loc_499CEC: ; preds=loc_499CE7 succs=loc_499D1F
  0x00499CEC    68 fc 09 ae 04                                   push    offset word_4AE09FC    ; data_refs=[0x04AE09FC]
  0x00499CF1    8d 84 24 84 00 00 00                             lea     eax, [esp+0C8h+Buffer]
  0x00499CF8    68 6c 1f 54 00                                   push    offset aFontsFontSTxt; "fonts\\font%s.txt"    ; data_refs=[0x00541F6C]
  0x00499CFD    50                                               push    eax; Buffer
  0x00499CFE    ff 15 d4 c3 53 00                                call    ds:sprintf    ; code_refs=[0x0053C3D4] data_refs=[0x0053C3D4]
  0x00499D04    83 c4 0c                                         add     esp, 0Ch
  0x00499D07    eb 16                                            jmp     short loc_499D1F    ; code_refs=[0x00499D1F]

loc_499D09: ; preds=loc_499CC0,loc_499CE7 succs=loc_499D1F
  0x00499D09    8d 8c 24 80 00 00 00                             lea     ecx, [esp+0C4h+Buffer]
  0x00499D10    68 5c 1f 54 00                                   push    offset aFontsFontTxt; "fonts\\font.txt"    ; data_refs=[0x00541F5C]
  0x00499D15    51                                               push    ecx; Buffer
  0x00499D16    ff 15 d4 c3 53 00                                call    ds:sprintf    ; code_refs=[0x0053C3D4] data_refs=[0x0053C3D4]
  0x00499D1C    83 c4 08                                         add     esp, 8

loc_499D1F: ; preds=loc_499CEC,loc_499D09 succs=loc_499E49,loc_499E60
  0x00499D1F    8b 94 24 cc 00 00 00                             mov     edx, [esp+0C4h+arg_4]
  0x00499D26    8b 44 24 14                                      mov     eax, [esp+0C4h+var_B0]
  0x00499D2A    68 20 00 02 00                                   push    20020h; Size
  0x00499D2F    6a 00                                            push    0; Val
  0x00499D31    68 48 f8 a4 04                                   push    offset dword_4A4F848; void *    ; data_refs=[0x04A4F848]
  0x00499D36    89 14 85 e8 c4 a8 04                             mov     dword_4A8C4E8[eax*4], edx    ; data_refs=[0x04A8C4E8]
  0x00499D3D    e8 58 47 09 00                                   call    memset    ; code_refs=[0x0052E49A]
  0x00499D42    83 c4 0c                                         add     esp, 0Ch
  0x00499D45    b8 00 01 00 00                                   mov     eax, 100h
  0x00499D4A    68 f1 07 00 00                                   push    7F1h
  0x00499D4F    ba e8 18 54 00                                   mov     edx, offset aShareclientsev_2; "..\\ShareClientSeverCode\\main.cpp"    ; data_refs=[0x005418E8]
  0x00499D54    b9 00 04 00 00                                   mov     ecx, 400h
  0x00499D59    c7 05 48 f8 a4 04 54 65 78 6d                    mov     dword_4A4F848, 6D786554h    ; data_refs=[0x04A4F848]
  0x00499D63    a3 4c f8 a4 04                                   mov     dword_4A4F84C, eax    ; data_refs=[0x04A4F84C]
  0x00499D68    a3 50 f8 a4 04                                   mov     dword_4A4F850, eax    ; data_refs=[0x04A4F850]
  0x00499D6D    c7 05 54 f8 a4 04 01 00 00 00                    mov     dword_4A4F854, 1    ; data_refs=[0x04A4F854]
  0x00499D77    c7 05 64 f8 a4 04 5c 11 00 00                    mov     dword_4A4F864, 115Ch    ; data_refs=[0x04A4F864]
  0x00499D81    e8 6a 1d 09 00                                   call    sub_52BAF0    ; code_refs=[0x0052BAF0]
  0x00499D86    68 f2 07 00 00                                   push    7F2h
  0x00499D8B    ba e8 18 54 00                                   mov     edx, offset aShareclientsev_2; "..\\ShareClientSeverCode\\main.cpp"    ; data_refs=[0x005418E8]
  0x00499D90    b9 00 04 00 00                                   mov     ecx, 400h
  0x00499D95    89 44 24 58                                      mov     [esp+0C8h+var_70], eax
  0x00499D99    e8 52 1d 09 00                                   call    sub_52BAF0    ; code_refs=[0x0052BAF0]
  0x00499D9E    8b cf                                            mov     ecx, edi
  0x00499DA0    89 44 24 48                                      mov     [esp+0C4h+var_7C], eax
  0x00499DA4    e8 47 53 fd ff                                   call    sub_46F0F0    ; code_refs=[0x0046F0F0]
  0x00499DA9    8b f0                                            mov     esi, eax
  0x00499DAB    68 f5 07 00 00                                   push    7F5h
  0x00499DB0    ba e8 18 54 00                                   mov     edx, offset aShareclientsev_2; "..\\ShareClientSeverCode\\main.cpp"    ; data_refs=[0x005418E8]
  0x00499DB5    8b ce                                            mov     ecx, esi
  0x00499DB7    e8 34 1d 09 00                                   call    sub_52BAF0    ; code_refs=[0x0052BAF0]
  0x00499DBC    33 d2                                            xor     edx, edx
  0x00499DBE    8b cf                                            mov     ecx, edi; Str
  0x00499DC0    8b d8                                            mov     ebx, eax
  0x00499DC2    e8 79 4c fd ff                                   call    sub_46EA40    ; code_refs=[0x0046EA40]
  0x00499DC7    8b f8                                            mov     edi, eax
  0x00499DC9    56                                               push    esi; MaxCharCount
  0x00499DCA    8b d3                                            mov     edx, ebx; DstBuf
  0x00499DCC    8b cf                                            mov     ecx, edi; FileHandle
  0x00499DCE    e8 9d 4f fd ff                                   call    sub_46ED70    ; code_refs=[0x0046ED70]
  0x00499DD3    8b cf                                            mov     ecx, edi; FileHandle
  0x00499DD5    e8 f6 51 fd ff                                   call    sub_46EFD0    ; code_refs=[0x0046EFD0]
  0x00499DDA    0f b7 7b 0a                                      movzx   edi, word ptr [ebx+0Ah]
  0x00499DDE    0f b7 53 06                                      movzx   edx, word ptr [ebx+6]
  0x00499DE2    8d 8c 33 00 fd ff ff                             lea     ecx, [ebx+esi-300h]
  0x00499DE9    89 4c 24 1c                                      mov     [esp+0C4h+var_A8], ecx
  0x00499DED    2b fa                                            sub     edi, edx
  0x00499DEF    8d 8c 24 80 00 00 00                             lea     ecx, [esp+0C4h+Buffer]
  0x00499DF6    47                                               inc     edi
  0x00499DF7    e8 f4 52 fd ff                                   call    sub_46F0F0    ; code_refs=[0x0046F0F0]
  0x00499DFC    8b f0                                            mov     esi, eax
  0x00499DFE    68 fd 07 00 00                                   push    7FDh
  0x00499E03    8d 4e 01                                         lea     ecx, [esi+1]
  0x00499E06    ba e8 18 54 00                                   mov     edx, offset aShareclientsev_2; "..\\ShareClientSeverCode\\main.cpp"    ; data_refs=[0x005418E8]
  0x00499E0B    e8 e0 1c 09 00                                   call    sub_52BAF0    ; code_refs=[0x0052BAF0]
  0x00499E10    8b e8                                            mov     ebp, eax
  0x00499E12    33 d2                                            xor     edx, edx
  0x00499E14    8d 8c 24 80 00 00 00                             lea     ecx, [esp+0C4h+Buffer]; Str
  0x00499E1B    89 6c 24 5c                                      mov     [esp+0C4h+var_68], ebp
  0x00499E1F    c6 04 2e 00                                      mov     byte ptr [esi+ebp], 0
  0x00499E23    e8 18 4c fd ff                                   call    sub_46EA40    ; code_refs=[0x0046EA40]
  0x00499E28    56                                               push    esi; MaxCharCount
  0x00499E29    8b d5                                            mov     edx, ebp; DstBuf
  0x00499E2B    8b c8                                            mov     ecx, eax; FileHandle
  0x00499E2D    89 44 24 1c                                      mov     [esp+0C8h+FileHandle], eax
  0x00499E31    e8 3a 4f fd ff                                   call    sub_46ED70    ; code_refs=[0x0046ED70]
  0x00499E36    8b 4c 24 18                                      mov     ecx, [esp+0C4h+FileHandle]; FileHandle
  0x00499E3A    e8 91 51 fd ff                                   call    sub_46EFD0    ; code_refs=[0x0046EFD0]
  0x00499E3F    33 c0                                            xor     eax, eax
  0x00499E41    89 44 24 4c                                      mov     [esp+0C4h+var_78], eax
  0x00499E45    3b f0                                            cmp     esi, eax
  0x00499E47    7e 17                                            jle     short loc_499E60    ; code_refs=[0x00499E60]

loc_499E49: ; preds=loc_499D1F succs=loc_499E50
  0x00499E49    8b c8                                            mov     ecx, eax
  0x00499E4B    eb 03                                            jmp     short loc_499E50    ; code_refs=[0x00499E50]

loc_499E50: ; preds=loc_499E49,loc_499E57 succs=loc_499E56,loc_499E57
  0x00499E50    80 3c 28 23                                      cmp     byte ptr [eax+ebp], 23h ; '#'
  0x00499E54    75 01                                            jnz     short loc_499E57    ; code_refs=[0x00499E57]

loc_499E56: ; preds=loc_499E50 succs=loc_499E57
  0x00499E56    41                                               inc     ecx

loc_499E57: ; preds=loc_499E50,loc_499E56 succs=loc_499E50,loc_499E5C
  0x00499E57    40                                               inc     eax
  0x00499E58    3b c6                                            cmp     eax, esi
  0x00499E5A    7c f4                                            jl      short loc_499E50    ; code_refs=[0x00499E50]

loc_499E5C: ; preds=loc_499E57 succs=loc_499E60
  0x00499E5C    89 4c 24 4c                                      mov     [esp+0C4h+var_78], ecx

loc_499E60: ; preds=loc_499D1F,loc_499E5C succs=loc_499E94
  0x00499E60    69 ff 18 01 00 00                                imul    edi, 118h
  0x00499E66    68 08 08 00 00                                   push    808h
  0x00499E6B    ba e8 18 54 00                                   mov     edx, offset aShareclientsev_2; "..\\ShareClientSeverCode\\main.cpp"    ; data_refs=[0x005418E8]
  0x00499E70    8b cf                                            mov     ecx, edi
  0x00499E72    89 7c 24 14                                      mov     [esp+0C8h+var_B4], edi
  0x00499E76    e8 75 1c 09 00                                   call    sub_52BAF0    ; code_refs=[0x0052BAF0]
  0x00499E7B    8b f0                                            mov     esi, eax
  0x00499E7D    89 74 24 38                                      mov     [esp+0C4h+var_8C], esi
  0x00499E81    8d 83 80 00 00 00                                lea     eax, [ebx+80h]
  0x00499E87    eb 0b                                            jmp     short loc_499E94    ; code_refs=[0x00499E94]

loc_499E90: ; preds=loc_499EBA succs=loc_499E94
  0x00499E90    8b 44 24 20                                      mov     eax, [esp+0C4h+var_A4]

loc_499E94: ; preds=loc_499E60,loc_499E90 succs=loc_499EA2,loc_499EAE
  0x00499E94    8a 10                                            mov     dl, [eax]
  0x00499E96    40                                               inc     eax
  0x00499E97    89 44 24 20                                      mov     [esp+0C4h+var_A4], eax
  0x00499E9B    b1 01                                            mov     cl, 1
  0x00499E9D    80 fa c0                                         cmp     dl, 0C0h
  0x00499EA0    76 0c                                            jbe     short loc_499EAE    ; code_refs=[0x00499EAE]

loc_499EA2: ; preds=loc_499E94 succs=loc_499EAE
  0x00499EA2    8a ca                                            mov     cl, dl
  0x00499EA4    8a 10                                            mov     dl, [eax]
  0x00499EA6    80 e1 3f                                         and     cl, 3Fh
  0x00499EA9    40                                               inc     eax
  0x00499EAA    89 44 24 20                                      mov     [esp+0C4h+var_A4], eax

loc_499EAE: ; preds=loc_499E94,loc_499EA2 succs=loc_499EB3
  0x00499EAE    0f b6 c1                                         movzx   eax, cl
  0x00499EB1    2b f8                                            sub     edi, eax

loc_499EB3: ; preds=loc_499EAE,loc_499EB3 succs=loc_499EBA,loc_499EB3
  0x00499EB3    88 16                                            mov     [esi], dl
  0x00499EB5    46                                               inc     esi
  0x00499EB6    fe c9                                            dec     cl
  0x00499EB8    75 f9                                            jnz     short loc_499EB3    ; code_refs=[0x00499EB3]

loc_499EBA: ; preds=loc_499EB3 succs=loc_499E90,loc_499EBE
  0x00499EBA    85 ff                                            test    edi, edi
  0x00499EBC    75 d2                                            jnz     short loc_499E90    ; code_refs=[0x00499E90]

loc_499EBE: ; preds=loc_499EBA succs=loc_499EC6,loc_499EFA
  0x00499EBE    33 d2                                            xor     edx, edx
  0x00499EC0    39 54 24 10                                      cmp     [esp+0C4h+var_B4], edx
  0x00499EC4    7e 34                                            jle     short loc_499EFA    ; code_refs=[0x00499EFA]

loc_499EC6: ; preds=loc_499EBE succs=loc_499ED0
  0x00499EC6    8b 7c 24 1c                                      mov     edi, [esp+0C4h+var_A8]
  0x00499ECA    8b 74 24 38                                      mov     esi, [esp+0C4h+var_8C]
  0x00499ECE    8b ff                                            mov     edi, edi

loc_499ED0: ; preds=loc_499EC6,loc_499EF3 succs=loc_499EDF,loc_499EEF
  0x00499ED0    0f b6 0c 16                                      movzx   ecx, byte ptr [esi+edx]
  0x00499ED4    8d 04 4f                                         lea     eax, [edi+ecx*2]
  0x00499ED7    03 c8                                            add     ecx, eax
  0x00499ED9    b0 f0                                            mov     al, 0F0h
  0x00499EDB    38 01                                            cmp     [ecx], al
  0x00499EDD    76 10                                            jbe     short loc_499EEF    ; code_refs=[0x00499EEF]

loc_499EDF: ; preds=loc_499ED0 succs=loc_499EE4,loc_499EEF
  0x00499EDF    38 41 01                                         cmp     [ecx+1], al
  0x00499EE2    76 0b                                            jbe     short loc_499EEF    ; code_refs=[0x00499EEF]

loc_499EE4: ; preds=loc_499EDF succs=loc_499EE9,loc_499EEF
  0x00499EE4    38 41 02                                         cmp     [ecx+2], al
  0x00499EE7    76 06                                            jbe     short loc_499EEF    ; code_refs=[0x00499EEF]

loc_499EE9: ; preds=loc_499EE4 succs=loc_499EF3
  0x00499EE9    c6 04 16 01                                      mov     byte ptr [esi+edx], 1
  0x00499EED    eb 04                                            jmp     short loc_499EF3    ; code_refs=[0x00499EF3]

loc_499EEF: ; preds=loc_499ED0,loc_499EDF,loc_499EE4 succs=loc_499EF3
  0x00499EEF    c6 04 16 00                                      mov     byte ptr [esi+edx], 0

loc_499EF3: ; preds=loc_499EE9,loc_499EEF succs=loc_499ED0,loc_499EFA
  0x00499EF3    42                                               inc     edx
  0x00499EF4    3b 54 24 10                                      cmp     edx, [esp+0C4h+var_B4]
  0x00499EF8    7c d6                                            jl      short loc_499ED0    ; code_refs=[0x00499ED0]

loc_499EFA: ; preds=loc_499EBE,loc_499EF3 succs=loc_499F3B,loc_49A549
  0x00499EFA    68 24 08 00 00                                   push    824h
  0x00499EFF    ba e8 18 54 00                                   mov     edx, offset aShareclientsev_2; "..\\ShareClientSeverCode\\main.cpp"    ; data_refs=[0x005418E8]
  0x00499F04    8b cb                                            mov     ecx, ebx
  0x00499F06    e8 a5 12 09 00                                   call    sub_52B1B0    ; code_refs=[0x0052B1B0]
  0x00499F0B    33 f6                                            xor     esi, esi
  0x00499F0D    33 ff                                            xor     edi, edi
  0x00499F0F    83 c9 ff                                         or      ecx, 0FFFFFFFFh
  0x00499F12    33 c0                                            xor     eax, eax
  0x00499F14    ba 1a 00 00 00                                   mov     edx, 1Ah
  0x00499F19    89 7c 24 28                                      mov     [esp+0C4h+var_9C], edi
  0x00499F1D    89 74 24 34                                      mov     [esp+0C4h+var_90], esi
  0x00499F21    89 74 24 40                                      mov     [esp+0C4h+var_84], esi
  0x00499F25    89 54 24 44                                      mov     [esp+0C4h+var_80], edx
  0x00499F29    89 4c 24 3c                                      mov     [esp+0C4h+var_88], ecx
  0x00499F2D    89 74 24 18                                      mov     [esp+0C4h+FileHandle], esi
  0x00499F31    39 74 24 4c                                      cmp     [esp+0C4h+var_78], esi
  0x00499F35    0f 8e 0e 06 00 00                                jle     loc_49A549    ; code_refs=[0x0049A549]

loc_499F3B: ; preds=loc_499EFA succs=loc_499F49
  0x00499F3B    dd 05 50 e4 53 00                                fld     ds:dbl_53E450    ; data_refs=[0x0053E450]
  0x00499F41    8b cd                                            mov     ecx, ebp
  0x00499F43    eb 04                                            jmp     short loc_499F49    ; code_refs=[0x00499F49]

loc_499F45: ; preds=loc_49A466 succs=loc_499F49
  0x00499F45    8b 4c 24 78                                      mov     ecx, [esp+0C4h+var_4C]

loc_499F49: ; preds=loc_499F3B,loc_499F45 succs=loc_499F4E,loc_499F55
  0x00499F49    80 39 23                                         cmp     byte ptr [ecx], 23h ; '#'
  0x00499F4C    74 07                                            jz      short loc_499F55    ; code_refs=[0x00499F55]

loc_499F4E: ; preds=loc_499F49,loc_499F4E succs=loc_499F55,loc_499F4E
  0x00499F4E    40                                               inc     eax
  0x00499F4F    80 3c 28 23                                      cmp     byte ptr [eax+ebp], 23h ; '#'
  0x00499F53    75 f9                                            jnz     short loc_499F4E    ; code_refs=[0x00499F4E]

loc_499F55: ; preds=loc_499F49,loc_499F4E succs=loc_499F5F,loc_499F6C
  0x00499F55    80 7c 28 ff 20                                   cmp     byte ptr [eax+ebp-1], 20h ; ' '
  0x00499F5A    8d 48 ff                                         lea     ecx, [eax-1]
  0x00499F5D    75 0d                                            jnz     short loc_499F6C    ; code_refs=[0x00499F6C]

loc_499F5F: ; preds=loc_499F55,loc_499F66 succs=loc_499F66,loc_49A5D2
  0x00499F5F    49                                               dec     ecx
  0x00499F60    0f 84 6c 06 00 00                                jz      loc_49A5D2    ; code_refs=[0x0049A5D2]

loc_499F66: ; preds=loc_499F5F succs=loc_499F5F,loc_499F6C
  0x00499F66    80 3c 29 20                                      cmp     byte ptr [ecx+ebp], 20h ; ' '
  0x00499F6A    74 f3                                            jz      short loc_499F5F    ; code_refs=[0x00499F5F]

loc_499F6C: ; preds=loc_499F55,loc_499F66 succs=loc_499F78,loc_49A5D2
  0x00499F6C    8a 14 29                                         mov     dl, [ecx+ebp]
  0x00499F6F    80 fa 30                                         cmp     dl, 30h ; '0'
  0x00499F72    0f 82 5a 06 00 00                                jb      loc_49A5D2    ; code_refs=[0x0049A5D2]

loc_499F78: ; preds=loc_499F6C succs=loc_499F81,loc_49A5D2
  0x00499F78    80 fa 39                                         cmp     dl, 39h ; '9'
  0x00499F7B    0f 87 51 06 00 00                                ja      loc_49A5D2    ; code_refs=[0x0049A5D2]

loc_499F81: ; preds=loc_499F78 succs=loc_499F8E,loc_49A5D2
  0x00499F81    8a 4c 29 ff                                      mov     cl, [ecx+ebp-1]
  0x00499F85    80 f9 41                                         cmp     cl, 41h ; 'A'
  0x00499F88    0f 82 44 06 00 00                                jb      loc_49A5D2    ; code_refs=[0x0049A5D2]

loc_499F8E: ; preds=loc_499F81 succs=loc_499F97,loc_49A5D2
  0x00499F8E    80 f9 5a                                         cmp     cl, 5Ah ; 'Z'
  0x00499F91    0f 87 3b 06 00 00                                ja      loc_49A5D2    ; code_refs=[0x0049A5D2]

loc_499F97: ; preds=loc_499F8E succs=loc_499FAE,loc_499FC4
  0x00499F97    0f b6 fa                                         movzx   edi, dl
  0x00499F9A    0f b6 d9                                         movzx   ebx, cl
  0x00499F9D    40                                               inc     eax
  0x00499F9E    83 ef 30                                         sub     edi, 30h ; '0'
  0x00499FA1    83 eb 41                                         sub     ebx, 41h ; 'A'
  0x00499FA4    80 3c 28 20                                      cmp     byte ptr [eax+ebp], 20h ; ' '
  0x00499FA8    89 44 24 50                                      mov     [esp+0C4h+var_74], eax
  0x00499FAC    75 16                                            jnz     short loc_499FC4    ; code_refs=[0x00499FC4]

loc_499FAE: ; preds=loc_499F97,loc_499FBF succs=loc_499FBF,loc_49A5D2
  0x00499FAE    8a 4c 28 01                                      mov     cl, [eax+ebp+1]
  0x00499FB2    40                                               inc     eax
  0x00499FB3    89 44 24 50                                      mov     [esp+0C4h+var_74], eax
  0x00499FB7    84 c9                                            test    cl, cl
  0x00499FB9    0f 84 13 06 00 00                                jz      loc_49A5D2    ; code_refs=[0x0049A5D2]

loc_499FBF: ; preds=loc_499FAE succs=loc_499FAE,loc_499FC4
  0x00499FBF    80 f9 20                                         cmp     cl, 20h ; ' '
  0x00499FC2    74 ea                                            jz      short loc_499FAE    ; code_refs=[0x00499FAE]

loc_499FC4: ; preds=loc_499F97,loc_499FBF succs=loc_499FD5,loc_49A5D2
  0x00499FC4    80 3c 28 27                                      cmp     byte ptr [eax+ebp], 27h ; '''
  0x00499FC8    8d 0c 28                                         lea     ecx, [eax+ebp]
  0x00499FCB    89 4c 24 78                                      mov     [esp+0C4h+var_4C], ecx
  0x00499FCF    0f 85 fd 05 00 00                                jnz     loc_49A5D2    ; code_refs=[0x0049A5D2]

loc_499FD5: ; preds=loc_499FC4 succs=loc_49A017
  0x00499FD5    0f b6 4c 28 01                                   movzx   ecx, byte ptr [eax+ebp+1]
  0x00499FDA    8b 54 24 54                                      mov     edx, [esp+0C4h+var_70]
  0x00499FDE    8b 44 24 48                                      mov     eax, [esp+0C4h+var_7C]
  0x00499FE2    89 4c 24 20                                      mov     [esp+0C4h+var_A4], ecx
  0x00499FE6    8b 4c 24 34                                      mov     ecx, [esp+0C4h+var_90]
  0x00499FEA    c1 e1 05                                         shl     ecx, 5
  0x00499FED    89 4c 24 30                                      mov     [esp+0C4h+var_94], ecx
  0x00499FF1    c1 e6 05                                         shl     esi, 5
  0x00499FF4    c1 e1 08                                         shl     ecx, 8
  0x00499FF7    03 ce                                            add     ecx, esi
  0x00499FF9    2b d0                                            sub     edx, eax
  0x00499FFB    03 c9                                            add     ecx, ecx
  0x00499FFD    89 4c 24 74                                      mov     [esp+0C4h+var_50], ecx
  0x0049A001    8d 89 68 f8 a4 04                                lea     ecx, unk_4A4F868[ecx]    ; data_refs=[0x04A4F868]
  0x0049A007    89 74 24 60                                      mov     [esp+0C4h+var_64], esi
  0x0049A00B    89 4c 24 10                                      mov     [esp+0C4h+var_B4], ecx
  0x0049A00F    c7 44 24 24 20 00 00 00                          mov     [esp+0C4h+var_A0], 20h ; ' '

loc_49A017: ; preds=loc_499FD5,loc_49A02F succs=loc_49A01C
  0x0049A017    be 20 00 00 00                                   mov     esi, 20h ; ' '

loc_49A01C: ; preds=loc_49A017,loc_49A01C succs=loc_49A02F,loc_49A01C
  0x0049A01C    33 ed                                            xor     ebp, ebp
  0x0049A01E    66 89 29                                         mov     [ecx], bp
  0x0049A021    c6 04 02 00                                      mov     byte ptr [edx+eax], 0
  0x0049A025    c6 00 00                                         mov     byte ptr [eax], 0
  0x0049A028    83 c1 02                                         add     ecx, 2
  0x0049A02B    40                                               inc     eax
  0x0049A02C    4e                                               dec     esi
  0x0049A02D    75 ed                                            jnz     short loc_49A01C    ; code_refs=[0x0049A01C]

loc_49A02F: ; preds=loc_49A01C succs=loc_49A017,loc_49A043
  0x0049A02F    8b 4c 24 10                                      mov     ecx, [esp+0C4h+var_B4]
  0x0049A033    81 c1 00 02 00 00                                add     ecx, 200h
  0x0049A039    ff 4c 24 24                                      dec     [esp+0C4h+var_A0]
  0x0049A03D    89 4c 24 10                                      mov     [esp+0C4h+var_B4], ecx
  0x0049A041    75 d4                                            jnz     short loc_49A017    ; code_refs=[0x0049A017]

loc_49A043: ; preds=loc_49A02F succs=loc_49A08C
  0x0049A043    8b 44 24 38                                      mov     eax, [esp+0C4h+var_8C]
  0x0049A047    6b db 1a                                         imul    ebx, 1Ah
  0x0049A04A    6b ff 1a                                         imul    edi, 1Ah
  0x0049A04D    8b 4c 24 48                                      mov     ecx, [esp+0C4h+var_7C]
  0x0049A051    83 c3 14                                         add     ebx, 14h
  0x0049A054    89 5c 24 7c                                      mov     [esp+0C4h+var_48], ebx
  0x0049A058    69 db 18 01 00 00                                imul    ebx, 118h
  0x0049A05E    83 c7 14                                         add     edi, 14h
  0x0049A061    03 df                                            add     ebx, edi
  0x0049A063    03 c3                                            add     eax, ebx
  0x0049A065    8b 9c 24 c8 00 00 00                             mov     ebx, [esp+0C4h+arg_0]
  0x0049A06C    ba 60 00 00 00                                   mov     edx, 60h ; '`'
  0x0049A071    83 c1 03                                         add     ecx, 3
  0x0049A074    89 7c 24 58                                      mov     [esp+0C4h+var_6C], edi
  0x0049A078    8b 7c 24 54                                      mov     edi, [esp+0C4h+var_70]
  0x0049A07C    89 54 24 68                                      mov     [esp+0C4h+var_5C], edx
  0x0049A080    89 44 24 2c                                      mov     [esp+0C4h+var_98], eax
  0x0049A084    89 44 24 64                                      mov     [esp+0C4h+var_60], eax
  0x0049A088    89 4c 24 1c                                      mov     [esp+0C4h+var_A8], ecx

loc_49A08C: ; preds=loc_49A043,loc_49A108 succs=loc_49A09C
  0x0049A08C    8b 4c 24 1c                                      mov     ecx, [esp+0C4h+var_A8]
  0x0049A090    33 ed                                            xor     ebp, ebp
  0x0049A092    03 ca                                            add     ecx, edx
  0x0049A094    89 44 24 24                                      mov     [esp+0C4h+var_A0], eax
  0x0049A098    89 4c 24 10                                      mov     [esp+0C4h+var_B4], ecx

loc_49A09C: ; preds=loc_49A08C,loc_49A0F9 succs=loc_49A0A9,loc_49A0F9
  0x0049A09C    8a 08                                            mov     cl, [eax]
  0x0049A09E    8b 74 24 10                                      mov     esi, [esp+0C4h+var_B4]
  0x0049A0A2    88 0e                                            mov     [esi], cl
  0x0049A0A4    80 38 00                                         cmp     byte ptr [eax], 0
  0x0049A0A7    74 50                                            jz      short loc_49A0F9    ; code_refs=[0x0049A0F9]

loc_49A0A9: ; preds=loc_49A09C succs=loc_49A0AF,loc_49A0F9
  0x0049A0A9    33 f6                                            xor     esi, esi
  0x0049A0AB    85 db                                            test    ebx, ebx
  0x0049A0AD    78 4a                                            js      short loc_49A0F9    ; code_refs=[0x0049A0F9]

loc_49A0AF: ; preds=loc_49A0A9,loc_49A0E9 succs=loc_49A0B1
  0x0049A0AF    33 c0                                            xor     eax, eax

loc_49A0B1: ; preds=loc_49A0AF,loc_49A0E4 succs=loc_49A0B6,loc_49A0DA
  0x0049A0B1    83 fb 01                                         cmp     ebx, 1
  0x0049A0B4    74 24                                            jz      short loc_49A0DA    ; code_refs=[0x0049A0DA]

loc_49A0B6: ; preds=loc_49A0B1 succs=loc_49A0BE,loc_49A0C2
  0x0049A0B6    8b cb                                            mov     ecx, ebx
  0x0049A0B8    f7 d9                                            neg     ecx
  0x0049A0BA    3b c1                                            cmp     eax, ecx
  0x0049A0BC    75 04                                            jnz     short loc_49A0C2    ; code_refs=[0x0049A0C2]

loc_49A0BE: ; preds=loc_49A0B6 succs=loc_49A0C2,loc_49A0E4
  0x0049A0BE    3b f1                                            cmp     esi, ecx
  0x0049A0C0    74 22                                            jz      short loc_49A0E4    ; code_refs=[0x0049A0E4]

loc_49A0C2: ; preds=loc_49A0B6,loc_49A0BE succs=loc_49A0C6,loc_49A0CA
  0x0049A0C2    3b c3                                            cmp     eax, ebx
  0x0049A0C4    75 04                                            jnz     short loc_49A0CA    ; code_refs=[0x0049A0CA]

loc_49A0C6: ; preds=loc_49A0C2 succs=loc_49A0CA,loc_49A0E4
  0x0049A0C6    3b f3                                            cmp     esi, ebx
  0x0049A0C8    74 1a                                            jz      short loc_49A0E4    ; code_refs=[0x0049A0E4]

loc_49A0CA: ; preds=loc_49A0C2,loc_49A0C6 succs=loc_49A0CE,loc_49A0D2
  0x0049A0CA    3b c1                                            cmp     eax, ecx
  0x0049A0CC    75 04                                            jnz     short loc_49A0D2    ; code_refs=[0x0049A0D2]

loc_49A0CE: ; preds=loc_49A0CA succs=loc_49A0D2,loc_49A0E4
  0x0049A0CE    3b f3                                            cmp     esi, ebx
  0x0049A0D0    74 12                                            jz      short loc_49A0E4    ; code_refs=[0x0049A0E4]

loc_49A0D2: ; preds=loc_49A0CA,loc_49A0CE succs=loc_49A0D6,loc_49A0DA
  0x0049A0D2    3b c3                                            cmp     eax, ebx
  0x0049A0D4    75 04                                            jnz     short loc_49A0DA    ; code_refs=[0x0049A0DA]

loc_49A0D6: ; preds=loc_49A0D2 succs=loc_49A0DA,loc_49A0E4
  0x0049A0D6    3b f1                                            cmp     esi, ecx
  0x0049A0D8    74 0a                                            jz      short loc_49A0E4    ; code_refs=[0x0049A0E4]

loc_49A0DA: ; preds=loc_49A0B1,loc_49A0D2,loc_49A0D6 succs=loc_49A0E4
  0x0049A0DA    8d 0c 02                                         lea     ecx, [edx+eax]
  0x0049A0DD    03 cd                                            add     ecx, ebp
  0x0049A0DF    c6 44 39 03 01                                   mov     byte ptr [ecx+edi+3], 1

loc_49A0E4: ; preds=loc_49A0BE,loc_49A0C6,loc_49A0CE,loc_49A0D6,loc_49A0DA succs=loc_49A0B1,loc_49A0E9
  0x0049A0E4    40                                               inc     eax
  0x0049A0E5    3b c3                                            cmp     eax, ebx
  0x0049A0E7    7e c8                                            jle     short loc_49A0B1    ; code_refs=[0x0049A0B1]

loc_49A0E9: ; preds=loc_49A0E4 succs=loc_49A0AF,loc_49A0F1
  0x0049A0E9    46                                               inc     esi
  0x0049A0EA    83 c2 20                                         add     edx, 20h ; ' '
  0x0049A0ED    3b f3                                            cmp     esi, ebx
  0x0049A0EF    7e be                                            jle     short loc_49A0AF    ; code_refs=[0x0049A0AF]

loc_49A0F1: ; preds=loc_49A0E9 succs=loc_49A0F9
  0x0049A0F1    8b 54 24 68                                      mov     edx, [esp+0C4h+var_5C]
  0x0049A0F5    8b 44 24 24                                      mov     eax, [esp+0C4h+var_A0]

loc_49A0F9: ; preds=loc_49A09C,loc_49A0A9,loc_49A0F1 succs=loc_49A09C,loc_49A108
  0x0049A0F9    ff 44 24 10                                      inc     [esp+0C4h+var_B4]
  0x0049A0FD    45                                               inc     ebp
  0x0049A0FE    40                                               inc     eax
  0x0049A0FF    89 44 24 24                                      mov     [esp+0C4h+var_A0], eax
  0x0049A103    83 fd 1a                                         cmp     ebp, 1Ah
  0x0049A106    7c 94                                            jl      short loc_49A09C    ; code_refs=[0x0049A09C]

loc_49A108: ; preds=loc_49A0F9 succs=loc_49A08C,loc_49A128
  0x0049A108    8b 44 24 64                                      mov     eax, [esp+0C4h+var_60]
  0x0049A10C    83 c2 20                                         add     edx, 20h ; ' '
  0x0049A10F    05 18 01 00 00                                   add     eax, 118h
  0x0049A114    89 54 24 68                                      mov     [esp+0C4h+var_5C], edx
  0x0049A118    89 44 24 64                                      mov     [esp+0C4h+var_60], eax
  0x0049A11C    81 fa a0 03 00 00                                cmp     edx, 3A0h
  0x0049A122    0f 8c 64 ff ff ff                                jl      loc_49A08C    ; code_refs=[0x0049A08C]

loc_49A128: ; preds=loc_49A108 succs=loc_49A137
  0x0049A128    8b 54 24 2c                                      mov     edx, [esp+0C4h+var_98]
  0x0049A12C    be 19 00 00 00                                   mov     esi, 19h
  0x0049A131    81 c2 71 1b 00 00                                add     edx, 1B71h

loc_49A137: ; preds=loc_49A128,loc_49A14C succs=loc_49A13E
  0x0049A137    b8 19 00 00 00                                   mov     eax, 19h
  0x0049A13C    8b ca                                            mov     ecx, edx

loc_49A13E: ; preds=loc_49A137,loc_49A143 succs=loc_49A143,loc_49A18F
  0x0049A13E    80 39 00                                         cmp     byte ptr [ecx], 0
  0x0049A141    75 4c                                            jnz     short loc_49A18F    ; code_refs=[0x0049A18F]

loc_49A143: ; preds=loc_49A13E succs=loc_49A13E,loc_49A14C
  0x0049A143    81 e9 18 01 00 00                                sub     ecx, 118h
  0x0049A149    48                                               dec     eax
  0x0049A14A    79 f2                                            jns     short loc_49A13E    ; code_refs=[0x0049A13E]

loc_49A14C: ; preds=loc_49A143 succs=loc_49A137,loc_49A150
  0x0049A14C    4a                                               dec     edx
  0x0049A14D    4e                                               dec     esi
  0x0049A14E    79 e7                                            jns     short loc_49A137    ; code_refs=[0x0049A137]

loc_49A150: ; preds=loc_49A14C succs=loc_49A16B
  0x0049A150    8b 44 24 20                                      mov     eax, [esp+0C4h+var_A4]
  0x0049A154    8b 54 24 14                                      mov     edx, [esp+0C4h+var_B0]
  0x0049A158    8d 0c 82                                         lea     ecx, [edx+eax*4]
  0x0049A15B    8b 94 24 d0 00 00 00                             mov     edx, [esp+0C4h+arg_8]
  0x0049A162    03 c8                                            add     ecx, eax
  0x0049A164    89 14 8d b8 f1 ab 04                             mov     dword_4ABF1B8[ecx*4], edx    ; data_refs=[0x04ABF1B8]

loc_49A16B: ; preds=loc_49A150,loc_49A18F succs=loc_49A171
  0x0049A16B    8b 74 24 2c                                      mov     esi, [esp+0C4h+var_98]
  0x0049A16F    33 d2                                            xor     edx, edx

loc_49A171: ; preds=loc_49A16B,loc_49A181 succs=loc_49A175
  0x0049A171    33 c0                                            xor     eax, eax
  0x0049A173    8b ce                                            mov     ecx, esi

loc_49A175: ; preds=loc_49A171,loc_49A17A succs=loc_49A17A,loc_49A1A6
  0x0049A175    80 39 00                                         cmp     byte ptr [ecx], 0
  0x0049A178    75 2c                                            jnz     short loc_49A1A6    ; code_refs=[0x0049A1A6]

loc_49A17A: ; preds=loc_49A175 succs=loc_49A175,loc_49A181
  0x0049A17A    40                                               inc     eax
  0x0049A17B    41                                               inc     ecx
  0x0049A17C    83 f8 1a                                         cmp     eax, 1Ah
  0x0049A17F    7c f4                                            jl      short loc_49A175    ; code_refs=[0x0049A175]

loc_49A181: ; preds=loc_49A17A succs=loc_49A171,loc_49A18D
  0x0049A181    42                                               inc     edx
  0x0049A182    81 c6 18 01 00 00                                add     esi, 118h
  0x0049A188    83 fa 1a                                         cmp     edx, 1Ah
  0x0049A18B    7c e4                                            jl      short loc_49A171    ; code_refs=[0x0049A171]

loc_49A18D: ; preds=loc_49A181 succs=loc_49A1B0
  0x0049A18D    eb 21                                            jmp     short loc_49A1B0    ; code_refs=[0x0049A1B0]

loc_49A18F: ; preds=loc_49A13E succs=loc_49A16B
  0x0049A18F    8b 44 24 20                                      mov     eax, [esp+0C4h+var_A4]
  0x0049A193    8b 54 24 14                                      mov     edx, [esp+0C4h+var_B0]
  0x0049A197    46                                               inc     esi
  0x0049A198    8d 0c 82                                         lea     ecx, [edx+eax*4]
  0x0049A19B    03 c8                                            add     ecx, eax
  0x0049A19D    89 34 8d b8 f1 ab 04                             mov     dword_4ABF1B8[ecx*4], esi    ; data_refs=[0x04ABF1B8]
  0x0049A1A4    eb c5                                            jmp     short loc_49A16B    ; code_refs=[0x0049A16B]

loc_49A1A6: ; preds=loc_49A175 succs=loc_49A1AC,loc_49A1B0
  0x0049A1A6    3b 54 24 44                                      cmp     edx, [esp+0C4h+var_80]
  0x0049A1AA    7d 04                                            jge     short loc_49A1B0    ; code_refs=[0x0049A1B0]

loc_49A1AC: ; preds=loc_49A1A6 succs=loc_49A1B0
  0x0049A1AC    89 54 24 44                                      mov     [esp+0C4h+var_80], edx

loc_49A1B0: ; preds=loc_49A18D,loc_49A1A6,loc_49A1AC succs=loc_49A1C9
  0x0049A1B0    8b 44 24 7c                                      mov     eax, [esp+0C4h+var_48]
  0x0049A1B4    be 19 00 00 00                                   mov     esi, 19h
  0x0049A1B9    03 c6                                            add     eax, esi
  0x0049A1BB    69 c0 18 01 00 00                                imul    eax, 118h
  0x0049A1C1    03 44 24 58                                      add     eax, [esp+0C4h+var_6C]
  0x0049A1C5    03 44 24 38                                      add     eax, [esp+0C4h+var_8C]

loc_49A1C9: ; preds=loc_49A1B0,loc_49A1D9 succs=loc_49A1CD
  0x0049A1C9    33 c9                                            xor     ecx, ecx
  0x0049A1CB    8b d0                                            mov     edx, eax

loc_49A1CD: ; preds=loc_49A1C9,loc_49A1D2 succs=loc_49A1D2,loc_49A1E3
  0x0049A1CD    80 3a 00                                         cmp     byte ptr [edx], 0
  0x0049A1D0    75 11                                            jnz     short loc_49A1E3    ; code_refs=[0x0049A1E3]

loc_49A1D2: ; preds=loc_49A1CD succs=loc_49A1CD,loc_49A1D9
  0x0049A1D2    41                                               inc     ecx
  0x0049A1D3    42                                               inc     edx
  0x0049A1D4    83 f9 1a                                         cmp     ecx, 1Ah
  0x0049A1D7    7c f4                                            jl      short loc_49A1CD    ; code_refs=[0x0049A1CD]

loc_49A1D9: ; preds=loc_49A1D2 succs=loc_49A1C9,loc_49A1E1
  0x0049A1D9    2d 18 01 00 00                                   sub     eax, 118h
  0x0049A1DE    4e                                               dec     esi
  0x0049A1DF    79 e8                                            jns     short loc_49A1C9    ; code_refs=[0x0049A1C9]

loc_49A1E1: ; preds=loc_49A1D9 succs=loc_49A1ED
  0x0049A1E1    eb 0a                                            jmp     short loc_49A1ED    ; code_refs=[0x0049A1ED]

loc_49A1E3: ; preds=loc_49A1CD succs=loc_49A1E9,loc_49A1ED
  0x0049A1E3    3b 74 24 3c                                      cmp     esi, [esp+0C4h+var_88]
  0x0049A1E7    7e 04                                            jle     short loc_49A1ED    ; code_refs=[0x0049A1ED]

loc_49A1E9: ; preds=loc_49A1E3 succs=loc_49A1ED
  0x0049A1E9    89 74 24 3c                                      mov     [esp+0C4h+var_88], esi

loc_49A1ED: ; preds=loc_49A1E1,loc_49A1E3,loc_49A1E9 succs=loc_49A214
  0x0049A1ED    8b 44 24 48                                      mov     eax, [esp+0C4h+var_7C]
  0x0049A1F1    8b 54 24 74                                      mov     edx, [esp+0C4h+var_50]
  0x0049A1F5    2b c7                                            sub     eax, edi
  0x0049A1F7    8d 92 6a f8 a4 04                                lea     edx, unk_4A4F86A[edx]    ; data_refs=[0x04A4F86A]
  0x0049A1FD    89 44 24 58                                      mov     [esp+0C4h+var_6C], eax
  0x0049A201    8b 44 24 1c                                      mov     eax, [esp+0C4h+var_A8]
  0x0049A205    8d 4f 01                                         lea     ecx, [edi+1]
  0x0049A208    89 54 24 10                                      mov     [esp+0C4h+var_B4], edx
  0x0049A20C    c7 44 24 2c 20 00 00 00                          mov     [esp+0C4h+var_98], 20h ; ' '

loc_49A214: ; preds=loc_49A1ED,loc_49A31D succs=loc_49A224
  0x0049A214    8b 7c 24 10                                      mov     edi, [esp+0C4h+var_B4]
  0x0049A218    8b e8                                            mov     ebp, eax
  0x0049A21A    8b d9                                            mov     ebx, ecx
  0x0049A21C    c7 44 24 1c 08 00 00 00                          mov     [esp+0C4h+var_A8], 8

loc_49A224: ; preds=loc_49A214,loc_49A2F7 succs=loc_49A22A,loc_49A237
  0x0049A224    80 7d fd 00                                      cmp     byte ptr [ebp-3], 0
  0x0049A228    74 0d                                            jz      short loc_49A237    ; code_refs=[0x0049A237]

loc_49A22A: ; preds=loc_49A224 succs=loc_49A24A
  0x0049A22A    b9 0f 00 00 00                                   mov     ecx, 0Fh
  0x0049A22F    8b d1                                            mov     edx, ecx
  0x0049A231    8b f1                                            mov     esi, ecx
  0x0049A233    8b c1                                            mov     eax, ecx
  0x0049A235    eb 13                                            jmp     short loc_49A24A    ; code_refs=[0x0049A24A]

loc_49A237: ; preds=loc_49A224 succs=loc_49A243,loc_49A248
  0x0049A237    33 c9                                            xor     ecx, ecx
  0x0049A239    33 d2                                            xor     edx, edx
  0x0049A23B    33 f6                                            xor     esi, esi
  0x0049A23D    80 7b ff 00                                      cmp     byte ptr [ebx-1], 0
  0x0049A241    74 05                                            jz      short loc_49A248    ; code_refs=[0x0049A248]

loc_49A243: ; preds=loc_49A237 succs=loc_49A24A
  0x0049A243    8d 41 0f                                         lea     eax, [ecx+0Fh]
  0x0049A246    eb 02                                            jmp     short loc_49A24A    ; code_refs=[0x0049A24A]

loc_49A248: ; preds=loc_49A237 succs=loc_49A24A
  0x0049A248    33 c0                                            xor     eax, eax

loc_49A24A: ; preds=loc_49A22A,loc_49A243,loc_49A248 succs=loc_49A267,loc_49A274
  0x0049A24A    c1 e0 04                                         shl     eax, 4
  0x0049A24D    0b c6                                            or      eax, esi
  0x0049A24F    c1 e0 04                                         shl     eax, 4
  0x0049A252    0b c2                                            or      eax, edx
  0x0049A254    c1 e0 04                                         shl     eax, 4
  0x0049A257    0b c1                                            or      eax, ecx
  0x0049A259    66 89 47 fe                                      mov     [edi-2], ax
  0x0049A25D    8b 44 24 58                                      mov     eax, [esp+0C4h+var_6C]
  0x0049A261    80 3c 18 00                                      cmp     byte ptr [eax+ebx], 0
  0x0049A265    74 0d                                            jz      short loc_49A274    ; code_refs=[0x0049A274]

loc_49A267: ; preds=loc_49A24A succs=loc_49A286
  0x0049A267    b9 0f 00 00 00                                   mov     ecx, 0Fh
  0x0049A26C    8b d1                                            mov     edx, ecx
  0x0049A26E    8b f1                                            mov     esi, ecx
  0x0049A270    8b c1                                            mov     eax, ecx
  0x0049A272    eb 12                                            jmp     short loc_49A286    ; code_refs=[0x0049A286]

loc_49A274: ; preds=loc_49A24A succs=loc_49A27F,loc_49A284
  0x0049A274    33 c9                                            xor     ecx, ecx
  0x0049A276    33 d2                                            xor     edx, edx
  0x0049A278    33 f6                                            xor     esi, esi
  0x0049A27A    80 3b 00                                         cmp     byte ptr [ebx], 0
  0x0049A27D    74 05                                            jz      short loc_49A284    ; code_refs=[0x0049A284]

loc_49A27F: ; preds=loc_49A274 succs=loc_49A286
  0x0049A27F    8d 41 0f                                         lea     eax, [ecx+0Fh]
  0x0049A282    eb 02                                            jmp     short loc_49A286    ; code_refs=[0x0049A286]

loc_49A284: ; preds=loc_49A274 succs=loc_49A286
  0x0049A284    33 c0                                            xor     eax, eax

loc_49A286: ; preds=loc_49A267,loc_49A27F,loc_49A284 succs=loc_49A29E,loc_49A2AB
  0x0049A286    c1 e0 04                                         shl     eax, 4
  0x0049A289    0b c6                                            or      eax, esi
  0x0049A28B    c1 e0 04                                         shl     eax, 4
  0x0049A28E    0b c2                                            or      eax, edx
  0x0049A290    c1 e0 04                                         shl     eax, 4
  0x0049A293    0b c1                                            or      eax, ecx
  0x0049A295    66 89 07                                         mov     [edi], ax
  0x0049A298    80 7d ff 00                                      cmp     byte ptr [ebp-1], 0
  0x0049A29C    74 0d                                            jz      short loc_49A2AB    ; code_refs=[0x0049A2AB]

loc_49A29E: ; preds=loc_49A286 succs=loc_49A2BE
  0x0049A29E    b9 0f 00 00 00                                   mov     ecx, 0Fh
  0x0049A2A3    8b d1                                            mov     edx, ecx
  0x0049A2A5    8b f1                                            mov     esi, ecx
  0x0049A2A7    8b c1                                            mov     eax, ecx
  0x0049A2A9    eb 13                                            jmp     short loc_49A2BE    ; code_refs=[0x0049A2BE]

loc_49A2AB: ; preds=loc_49A286 succs=loc_49A2B7,loc_49A2BC
  0x0049A2AB    33 c9                                            xor     ecx, ecx
  0x0049A2AD    33 d2                                            xor     edx, edx
  0x0049A2AF    33 f6                                            xor     esi, esi
  0x0049A2B1    80 7b 01 00                                      cmp     byte ptr [ebx+1], 0
  0x0049A2B5    74 05                                            jz      short loc_49A2BC    ; code_refs=[0x0049A2BC]

loc_49A2B7: ; preds=loc_49A2AB succs=loc_49A2BE
  0x0049A2B7    8d 41 0f                                         lea     eax, [ecx+0Fh]
  0x0049A2BA    eb 02                                            jmp     short loc_49A2BE    ; code_refs=[0x0049A2BE]

loc_49A2BC: ; preds=loc_49A2AB succs=loc_49A2BE
  0x0049A2BC    33 c0                                            xor     eax, eax

loc_49A2BE: ; preds=loc_49A29E,loc_49A2B7,loc_49A2BC succs=loc_49A2D7,loc_49A2E4
  0x0049A2BE    c1 e0 04                                         shl     eax, 4
  0x0049A2C1    0b c6                                            or      eax, esi
  0x0049A2C3    c1 e0 04                                         shl     eax, 4
  0x0049A2C6    0b c2                                            or      eax, edx
  0x0049A2C8    c1 e0 04                                         shl     eax, 4
  0x0049A2CB    0b c1                                            or      eax, ecx
  0x0049A2CD    66 89 47 02                                      mov     [edi+2], ax
  0x0049A2D1    80 7d 00 00                                      cmp     byte ptr [ebp+0], 0
  0x0049A2D5    74 0d                                            jz      short loc_49A2E4    ; code_refs=[0x0049A2E4]

loc_49A2D7: ; preds=loc_49A2BE succs=loc_49A2F7
  0x0049A2D7    b9 0f 00 00 00                                   mov     ecx, 0Fh
  0x0049A2DC    8b d1                                            mov     edx, ecx
  0x0049A2DE    8b f1                                            mov     esi, ecx
  0x0049A2E0    8b c1                                            mov     eax, ecx
  0x0049A2E2    eb 13                                            jmp     short loc_49A2F7    ; code_refs=[0x0049A2F7]

loc_49A2E4: ; preds=loc_49A2BE succs=loc_49A2F0,loc_49A2F5
  0x0049A2E4    33 c9                                            xor     ecx, ecx
  0x0049A2E6    33 d2                                            xor     edx, edx
  0x0049A2E8    33 f6                                            xor     esi, esi
  0x0049A2EA    80 7b 02 00                                      cmp     byte ptr [ebx+2], 0
  0x0049A2EE    74 05                                            jz      short loc_49A2F5    ; code_refs=[0x0049A2F5]

loc_49A2F0: ; preds=loc_49A2E4 succs=loc_49A2F7
  0x0049A2F0    8d 41 0f                                         lea     eax, [ecx+0Fh]
  0x0049A2F3    eb 02                                            jmp     short loc_49A2F7    ; code_refs=[0x0049A2F7]

loc_49A2F5: ; preds=loc_49A2E4 succs=loc_49A2F7
  0x0049A2F5    33 c0                                            xor     eax, eax

loc_49A2F7: ; preds=loc_49A2D7,loc_49A2F0,loc_49A2F5 succs=loc_49A224,loc_49A31D
  0x0049A2F7    c1 e0 04                                         shl     eax, 4
  0x0049A2FA    0b c6                                            or      eax, esi
  0x0049A2FC    c1 e0 04                                         shl     eax, 4
  0x0049A2FF    0b c2                                            or      eax, edx
  0x0049A301    c1 e0 04                                         shl     eax, 4
  0x0049A304    0b c1                                            or      eax, ecx
  0x0049A306    66 89 47 04                                      mov     [edi+4], ax
  0x0049A30A    83 c7 08                                         add     edi, 8
  0x0049A30D    83 c5 04                                         add     ebp, 4
  0x0049A310    83 c3 04                                         add     ebx, 4
  0x0049A313    ff 4c 24 1c                                      dec     [esp+0C4h+var_A8]
  0x0049A317    0f 85 07 ff ff ff                                jnz     loc_49A224    ; code_refs=[0x0049A224]

loc_49A31D: ; preds=loc_49A2F7 succs=loc_49A214,loc_49A333
  0x0049A31D    81 44 24 10 00 02 00 00                          add     [esp+0C4h+var_B4], 200h
  0x0049A325    ff 4c 24 2c                                      dec     [esp+0C4h+var_98]
  0x0049A329    8b c5                                            mov     eax, ebp
  0x0049A32B    8b cb                                            mov     ecx, ebx
  0x0049A32D    0f 85 e1 fe ff ff                                jnz     loc_49A214    ; code_refs=[0x0049A214]

loc_49A333: ; preds=loc_49A31D succs=loc_49A399,loc_49A466
  0x0049A333    8b 4c 24 60                                      mov     ecx, [esp+0C4h+var_64]
  0x0049A337    8b 94 24 c8 00 00 00                             mov     edx, [esp+0C4h+arg_0]
  0x0049A33E    8b 44 24 20                                      mov     eax, [esp+0C4h+var_A4]
  0x0049A342    8b 74 24 40                                      mov     esi, [esp+0C4h+var_84]
  0x0049A346    8b 7c 24 28                                      mov     edi, [esp+0C4h+var_9C]
  0x0049A34A    2b ca                                            sub     ecx, edx
  0x0049A34C    83 c1 03                                         add     ecx, 3
  0x0049A34F    89 4c 24 60                                      mov     [esp+0C4h+var_64], ecx
  0x0049A353    db 44 24 60                                      fild    [esp+0C4h+var_64]
  0x0049A357    8b 4c 24 30                                      mov     ecx, [esp+0C4h+var_94]
  0x0049A35B    c1 e0 04                                         shl     eax, 4
  0x0049A35E    2b ca                                            sub     ecx, edx
  0x0049A360    d8 c9                                            fmul    st, st(1)
  0x0049A362    83 c1 03                                         add     ecx, 3
  0x0049A365    89 4c 24 30                                      mov     [esp+0C4h+var_94], ecx
  0x0049A369    46                                               inc     esi
  0x0049A36A    d9 98 0c 0a ae 04                                fstp    flt_4AE0A0C[eax]    ; data_refs=[0x04AE0A0C]
  0x0049A370    c7 80 14 0a ae 04 01 00 00 00                    mov     dword_4AE0A14[eax], 1    ; data_refs=[0x04AE0A14]
  0x0049A37A    db 44 24 30                                      fild    [esp+0C4h+var_94]
  0x0049A37E    89 b8 08 0a ae 04                                mov     dword_4AE0A08[eax], edi    ; data_refs=[0x04AE0A08]
  0x0049A384    89 74 24 40                                      mov     [esp+0C4h+var_84], esi
  0x0049A388    d8 c9                                            fmul    st, st(1)
  0x0049A38A    d9 98 10 0a ae 04                                fstp    flt_4AE0A10[eax]    ; data_refs=[0x04AE0A10]
  0x0049A390    83 fe 08                                         cmp     esi, 8
  0x0049A393    0f 85 cd 00 00 00                                jnz     loc_49A466    ; code_refs=[0x0049A466]

loc_49A399: ; preds=loc_49A333 succs=loc_49A3B1,loc_49A466
  0x0049A399    8b 44 24 34                                      mov     eax, [esp+0C4h+var_90]
  0x0049A39D    40                                               inc     eax
  0x0049A39E    33 f6                                            xor     esi, esi
  0x0049A3A0    89 74 24 40                                      mov     [esp+0C4h+var_84], esi
  0x0049A3A4    89 44 24 34                                      mov     [esp+0C4h+var_90], eax
  0x0049A3A8    83 f8 08                                         cmp     eax, 8
  0x0049A3AB    0f 85 b5 00 00 00                                jnz     loc_49A466    ; code_refs=[0x0049A466]

loc_49A3B1: ; preds=loc_49A399 succs=loc_49A412,loc_49A448
  0x0049A3B1    8b 4c 24 14                                      mov     ecx, [esp+0C4h+var_B0]
  0x0049A3B5    dd d8                                            fstp    st
  0x0049A3B7    8b 15 50 f8 a4 04                                mov     edx, dword_4A4F850    ; data_refs=[0x04A4F850]
  0x0049A3BD    8b c7                                            mov     eax, edi
  0x0049A3BF    8d 3c 81                                         lea     edi, [ecx+eax*4]
  0x0049A3C2    8b 0d f0 b2 bb 04                                mov     ecx, dword_4BBB2F0    ; data_refs=[0x04BBB2F0]
  0x0049A3C8    03 f8                                            add     edi, eax
  0x0049A3CA    a1 4c f8 a4 04                                   mov     eax, dword_4A4F84C    ; data_refs=[0x04A4F84C]
  0x0049A3CF    8d 3c bd 28 71 a4 04                             lea     edi, dword_4A47128[edi*4]    ; data_refs=[0x04A47128]
  0x0049A3D6    57                                               push    edi
  0x0049A3D7    6a 01                                            push    1
  0x0049A3D9    6a 1a                                            push    1Ah
  0x0049A3DB    33 db                                            xor     ebx, ebx
  0x0049A3DD    53                                               push    ebx
  0x0049A3DE    6a 01                                            push    1
  0x0049A3E0    52                                               push    edx
  0x0049A3E1    8b 51 04                                         mov     edx, [ecx+4]
  0x0049A3E4    50                                               push    eax
  0x0049A3E5    52                                               push    edx
  0x0049A3E6    89 5c 24 54                                      mov     [esp+0E4h+var_90], ebx
  0x0049A3EA    e8 01 e7 07 00                                   call    sub_518AF0    ; code_refs=[0x00518AF0]
  0x0049A3EF    8b 07                                            mov     eax, [edi]
  0x0049A3F1    8b 08                                            mov     ecx, [eax]
  0x0049A3F3    53                                               push    ebx
  0x0049A3F4    53                                               push    ebx
  0x0049A3F5    8d 54 24 74                                      lea     edx, [esp+0CCh+var_58]
  0x0049A3F9    52                                               push    edx
  0x0049A3FA    53                                               push    ebx
  0x0049A3FB    50                                               push    eax
  0x0049A3FC    8b 41 4c                                         mov     eax, [ecx+4Ch]
  0x0049A3FF    ff d0                                            call    eax
  0x0049A401    8b 74 24 70                                      mov     esi, [esp+0C4h+var_54]
  0x0049A405    bd 68 f8 a4 04                                   mov     ebp, offset unk_4A4F868    ; data_refs=[0x04A4F868]
  0x0049A40A    39 1d 50 f8 a4 04                                cmp     dword_4A4F850, ebx    ; data_refs=[0x04A4F850]
  0x0049A410    7e 36                                            jle     short loc_49A448    ; code_refs=[0x0049A448]

loc_49A412: ; preds=loc_49A3B1 succs=loc_49A420
  0x0049A412    a1 4c f8 a4 04                                   mov     eax, dword_4A4F84C    ; data_refs=[0x04A4F84C]
  0x0049A417    03 c0                                            add     eax, eax
  0x0049A419    8d a4 24 00 00 00 00                             lea     esp, [esp+0]

loc_49A420: ; preds=loc_49A412,loc_49A420 succs=loc_49A448,loc_49A420
  0x0049A420    50                                               push    eax; Size
  0x0049A421    55                                               push    ebp; Src
  0x0049A422    56                                               push    esi; void *
  0x0049A423    e8 6c 40 09 00                                   call    memcpy    ; code_refs=[0x0052E494]
  0x0049A428    8b 15 4c f8 a4 04                                mov     edx, dword_4A4F84C    ; data_refs=[0x04A4F84C]
  0x0049A42E    8b 4c 24 78                                      mov     ecx, dword ptr [esp+0D0h+var_58]
  0x0049A432    8d 04 12                                         lea     eax, [edx+edx]
  0x0049A435    d1 e9                                            shr     ecx, 1
  0x0049A437    43                                               inc     ebx
  0x0049A438    83 c4 0c                                         add     esp, 0Ch
  0x0049A43B    03 e8                                            add     ebp, eax
  0x0049A43D    8d 34 4e                                         lea     esi, [esi+ecx*2]
  0x0049A440    3b 1d 50 f8 a4 04                                cmp     ebx, dword_4A4F850    ; data_refs=[0x04A4F850]
  0x0049A446    7c d8                                            jl      short loc_49A420    ; code_refs=[0x0049A420]

loc_49A448: ; preds=loc_49A3B1,loc_49A420 succs=loc_49A466
  0x0049A448    8b 3f                                            mov     edi, [edi]
  0x0049A44A    8b 07                                            mov     eax, [edi]
  0x0049A44C    8b 48 50                                         mov     ecx, [eax+50h]
  0x0049A44F    6a 00                                            push    0
  0x0049A451    57                                               push    edi
  0x0049A452    ff d1                                            call    ecx
  0x0049A454    dd 05 50 e4 53 00                                fld     ds:dbl_53E450    ; data_refs=[0x0053E450]
  0x0049A45A    ff 44 24 28                                      inc     [esp+0C4h+var_9C]
  0x0049A45E    8b 7c 24 28                                      mov     edi, [esp+0C4h+var_9C]
  0x0049A462    8b 74 24 40                                      mov     esi, [esp+0C4h+var_84]

loc_49A466: ; preds=loc_49A333,loc_49A399,loc_49A448 succs=loc_499F45,loc_49A481
  0x0049A466    8b 4c 24 18                                      mov     ecx, [esp+0C4h+FileHandle]
  0x0049A46A    8b 44 24 50                                      mov     eax, [esp+0C4h+var_74]
  0x0049A46E    8b 6c 24 5c                                      mov     ebp, [esp+0C4h+var_68]
  0x0049A472    41                                               inc     ecx
  0x0049A473    89 4c 24 18                                      mov     [esp+0C4h+FileHandle], ecx
  0x0049A477    3b 4c 24 4c                                      cmp     ecx, [esp+0C4h+var_78]
  0x0049A47B    0f 8c c4 fa ff ff                                jl      loc_499F45    ; code_refs=[0x00499F45]

loc_49A481: ; preds=loc_49A466 succs=loc_49A487,loc_49A491
  0x0049A481    dd d8                                            fstp    st
  0x0049A483    85 f6                                            test    esi, esi
  0x0049A485    75 0a                                            jnz     short loc_49A491    ; code_refs=[0x0049A491]

loc_49A487: ; preds=loc_49A481 succs=loc_49A491,loc_49A541
  0x0049A487    39 74 24 34                                      cmp     [esp+0C4h+var_90], esi
  0x0049A48B    0f 84 b0 00 00 00                                jz      loc_49A541    ; code_refs=[0x0049A541]

loc_49A491: ; preds=loc_49A481,loc_49A487 succs=loc_49A4F9,loc_49A530
  0x0049A491    8b 54 24 14                                      mov     edx, [esp+0C4h+var_B0]
  0x0049A495    a1 50 f8 a4 04                                   mov     eax, dword_4A4F850    ; data_refs=[0x04A4F850]
  0x0049A49A    8b 0d 4c f8 a4 04                                mov     ecx, dword_4A4F84C    ; data_refs=[0x04A4F84C]
  0x0049A4A0    8d 34 ba                                         lea     esi, [edx+edi*4]
  0x0049A4A3    03 f7                                            add     esi, edi
  0x0049A4A5    8d 34 b5 28 71 a4 04                             lea     esi, dword_4A47128[esi*4]    ; data_refs=[0x04A47128]
  0x0049A4AC    56                                               push    esi
  0x0049A4AD    6a 01                                            push    1
  0x0049A4AF    6a 1a                                            push    1Ah
  0x0049A4B1    6a 00                                            push    0
  0x0049A4B3    6a 01                                            push    1
  0x0049A4B5    50                                               push    eax
  0x0049A4B6    51                                               push    ecx
  0x0049A4B7    8b 0d f0 b2 bb 04                                mov     ecx, dword_4BBB2F0    ; data_refs=[0x04BBB2F0]
  0x0049A4BD    8b 51 04                                         mov     edx, [ecx+4]
  0x0049A4C0    52                                               push    edx
  0x0049A4C1    89 74 24 50                                      mov     [esp+0E4h+var_94], esi
  0x0049A4C5    e8 26 e6 07 00                                   call    sub_518AF0    ; code_refs=[0x00518AF0]
  0x0049A4CA    8b 06                                            mov     eax, [esi]
  0x0049A4CC    8b 08                                            mov     ecx, [eax]
  0x0049A4CE    6a 00                                            push    0
  0x0049A4D0    6a 00                                            push    0
  0x0049A4D2    8d 54 24 74                                      lea     edx, [esp+0CCh+var_58]
  0x0049A4D6    52                                               push    edx
  0x0049A4D7    6a 00                                            push    0
  0x0049A4D9    50                                               push    eax
  0x0049A4DA    8b 41 4c                                         mov     eax, [ecx+4Ch]
  0x0049A4DD    ff d0                                            call    eax
  0x0049A4DF    83 3d 50 f8 a4 04 00                             cmp     dword_4A4F850, 0    ; data_refs=[0x04A4F850]
  0x0049A4E6    8b 74 24 70                                      mov     esi, [esp+0C4h+var_54]
  0x0049A4EA    bb 68 f8 a4 04                                   mov     ebx, offset unk_4A4F868    ; data_refs=[0x04A4F868]
  0x0049A4EF    c7 44 24 18 00 00 00 00                          mov     [esp+0C4h+FileHandle], 0
  0x0049A4F7    7e 37                                            jle     short loc_49A530    ; code_refs=[0x0049A530]

loc_49A4F9: ; preds=loc_49A491 succs=loc_49A500
  0x0049A4F9    a1 4c f8 a4 04                                   mov     eax, dword_4A4F84C    ; data_refs=[0x04A4F84C]
  0x0049A4FE    03 c0                                            add     eax, eax

loc_49A500: ; preds=loc_49A4F9,loc_49A500 succs=loc_49A530,loc_49A500
  0x0049A500    50                                               push    eax; Size
  0x0049A501    53                                               push    ebx; Src
  0x0049A502    56                                               push    esi; void *
  0x0049A503    e8 8c 3f 09 00                                   call    memcpy    ; code_refs=[0x0052E494]
  0x0049A508    8b 4c 24 78                                      mov     ecx, dword ptr [esp+0D0h+var_58]
  0x0049A50C    8b 15 4c f8 a4 04                                mov     edx, dword_4A4F84C    ; data_refs=[0x04A4F84C]
  0x0049A512    d1 e9                                            shr     ecx, 1
  0x0049A514    8d 34 4e                                         lea     esi, [esi+ecx*2]
  0x0049A517    8b 4c 24 24                                      mov     ecx, [esp+0D0h+FileHandle]
  0x0049A51B    8d 04 12                                         lea     eax, [edx+edx]
  0x0049A51E    41                                               inc     ecx
  0x0049A51F    83 c4 0c                                         add     esp, 0Ch
  0x0049A522    03 d8                                            add     ebx, eax
  0x0049A524    89 4c 24 18                                      mov     [esp+0C4h+FileHandle], ecx
  0x0049A528    3b 0d 50 f8 a4 04                                cmp     ecx, dword_4A4F850    ; data_refs=[0x04A4F850]
  0x0049A52E    7c d0                                            jl      short loc_49A500    ; code_refs=[0x0049A500]

loc_49A530: ; preds=loc_49A491,loc_49A500 succs=loc_49A541
  0x0049A530    8b 44 24 30                                      mov     eax, [esp+0C4h+var_94]
  0x0049A534    8b 00                                            mov     eax, [eax]
  0x0049A536    8b 08                                            mov     ecx, [eax]
  0x0049A538    8b 51 50                                         mov     edx, [ecx+50h]
  0x0049A53B    6a 00                                            push    0
  0x0049A53D    50                                               push    eax
  0x0049A53E    ff d2                                            call    edx
  0x0049A540    47                                               inc     edi

loc_49A541: ; preds=loc_49A487,loc_49A530 succs=loc_49A549
  0x0049A541    8b 4c 24 3c                                      mov     ecx, [esp+0C4h+var_88]
  0x0049A545    8b 54 24 44                                      mov     edx, [esp+0C4h+var_80]

loc_49A549: ; preds=loc_499EFA,loc_49A541 succs=loc_49A5C8,loc_49A5DE
  0x0049A549    8b 44 24 14                                      mov     eax, [esp+0C4h+var_B0]
  0x0049A54D    2b ca                                            sub     ecx, edx
  0x0049A54F    83 c1 03                                         add     ecx, 3
  0x0049A552    89 0c 85 18 83 b2 04                             mov     dword_4B28318[eax*4], ecx    ; data_refs=[0x04B28318]
  0x0049A559    b9 14 00 00 00                                   mov     ecx, 14h
  0x0049A55E    2b ca                                            sub     ecx, edx
  0x0049A560    89 0c 85 48 c3 a9 04                             mov     dword_4A9C348[eax*4], ecx    ; data_refs=[0x04A9C348]
  0x0049A567    8b 4c 24 38                                      mov     ecx, [esp+0C4h+var_8C]
  0x0049A56B    89 14 85 c0 83 b2 04                             mov     dword_4B283C0[eax*4], edx    ; data_refs=[0x04B283C0]
  0x0049A572    68 c0 08 00 00                                   push    8C0h
  0x0049A577    ba e8 18 54 00                                   mov     edx, offset aShareclientsev_2; "..\\ShareClientSeverCode\\main.cpp"    ; data_refs=[0x005418E8]
  0x0049A57C    89 3c 85 44 c1 a8 04                             mov     dword_4A8C144[eax*4], edi    ; data_refs=[0x04A8C144]
  0x0049A583    e8 28 0c 09 00                                   call    sub_52B1B0    ; code_refs=[0x0052B1B0]
  0x0049A588    68 c1 08 00 00                                   push    8C1h
  0x0049A58D    ba e8 18 54 00                                   mov     edx, offset aShareclientsev_2; "..\\ShareClientSeverCode\\main.cpp"    ; data_refs=[0x005418E8]
  0x0049A592    8b cd                                            mov     ecx, ebp
  0x0049A594    e8 17 0c 09 00                                   call    sub_52B1B0    ; code_refs=[0x0052B1B0]
  0x0049A599    8b 4c 24 54                                      mov     ecx, [esp+0C4h+var_70]
  0x0049A59D    68 c2 08 00 00                                   push    8C2h
  0x0049A5A2    ba e8 18 54 00                                   mov     edx, offset aShareclientsev_2; "..\\ShareClientSeverCode\\main.cpp"    ; data_refs=[0x005418E8]
  0x0049A5A7    e8 04 0c 09 00                                   call    sub_52B1B0    ; code_refs=[0x0052B1B0]
  0x0049A5AC    8b 4c 24 48                                      mov     ecx, [esp+0C4h+var_7C]
  0x0049A5B0    68 c3 08 00 00                                   push    8C3h
  0x0049A5B5    ba e8 18 54 00                                   mov     edx, offset aShareclientsev_2; "..\\ShareClientSeverCode\\main.cpp"    ; data_refs=[0x005418E8]
  0x0049A5BA    e8 f1 0b 09 00                                   call    sub_52B1B0    ; code_refs=[0x0052B1B0]
  0x0049A5BF    83 3d d4 11 ae 04 00                             cmp     dword_4AE11D4, 0    ; data_refs=[0x04AE11D4]
  0x0049A5C6    75 16                                            jnz     short loc_49A5DE    ; code_refs=[0x0049A5DE]

loc_49A5C8: ; preds=loc_49A549 succs=
  0x0049A5C8    b9 1c 1f 54 00                                   mov     ecx, offset aSymbolForCodeF; "Symbol for CODE_FOR_UNDIFINED_SYMBOL is"...    ; data_refs=[0x00541F1C]
  0x0049A5CD    e8 5e f2 ff ff                                   call    sub_499830    ; code_refs=[0x00499830]

loc_49A5D2: ; preds=loc_499F5F,loc_499F6C,loc_499F78,loc_499F81,loc_499F8E,loc_499FAE,loc_499FC4 succs=
  0x0049A5D2    b9 00 1f 54 00                                   mov     ecx, offset aWrongFormatOfF; "wrong format of font1.txt"    ; data_refs=[0x00541F00]
  0x0049A5D7    dd d8                                            fstp    st
  0x0049A5D9    e8 52 f2 ff ff                                   call    sub_499830    ; code_refs=[0x00499830]

loc_49A5DE: ; preds=loc_49A549 succs=
  0x0049A5DE    8b 8c 24 c0 00 00 00                             mov     ecx, [esp+0C4h+var_4]
  0x0049A5E5    5f                                               pop     edi
  0x0049A5E6    5e                                               pop     esi
  0x0049A5E7    5d                                               pop     ebp
  0x0049A5E8    5b                                               pop     ebx
  0x0049A5E9    33 cc                                            xor     ecx, esp
  0x0049A5EB    e8 b0 3e 09 00                                   call    sub_52E4A0    ; code_refs=[0x0052E4A0]
  0x0049A5F0    81 c4 b4 00 00 00                                add     esp, 0B4h
  0x0049A5F6    c2 0c 00                                         retn    0Ch
; END_FUNC 0x00499CC0 sub_499CC0


; ======================================================================================================================
; FUNC 0x004A2790 sub_4A2790 size=1128 segment=.text
; STRINGS:
;   0x00564490 'N'
;   0x005601C4 ' '
;   0x005418E8 '..\\ShareClientSeverCode\\main.cpp'
;   0x005413C0 '__debug.mbc'
;   0x00542A10 'debug\\pics\\'
;   0x00541A10 'landscape\\'
;   0x005419F8 'landscape_hr\\'
;   0x005419E8 'landscape_ph\\'
;   0x005419D8 'landscape_rd\\'
;   0x005429FC 'models\\textures\\'
;   0x005429E8 'models_hr\\textures\\'
;   0x005429D4 'models_ph\\textures\\'
;   0x005429C0 'models_rd\\textures\\'
;   0x005429B4 'textures\\'
;   0x005429A4 'textures\\fx\\'
;   0x00542990 'textures\\emblems\\'
;   0x00542988 'xadd\\'
;   0x0054297C 'players\\'
;   0x005601E4 '0u'
;   0x005601E8 '0u'
;   0x0054296C 'Shaders\\Pixel\\'
;   0x0054295C 'Shaders\\Vertex\\'
;   0x005589AC '"'
; ----------------------------------------------------------------------------------------------------------------------

loc_4A2790: ; preds= succs=loc_4A27DD,loc_4A27E6
  0x004A2790    6a ff                                            push    0FFFFFFFFh
  0x004A2792    68 3d 10 53 00                                   push    offset SEH_462790    ; data_refs=[0x0053103D]
  0x004A2797    64 a1 00 00 00 00                                mov     eax, large fs:0
  0x004A279D    50                                               push    eax
  0x004A279E    83 ec 4c                                         sub     esp, 4Ch
  0x004A27A1    a1 90 44 56 00                                   mov     eax, dword_564490    ; data_refs=[0x00564490]
  0x004A27A6    33 c4                                            xor     eax, esp
  0x004A27A8    89 44 24 48                                      mov     [esp+58h+var_10], eax
  0x004A27AC    56                                               push    esi
  0x004A27AD    57                                               push    edi
  0x004A27AE    a1 90 44 56 00                                   mov     eax, dword_564490    ; data_refs=[0x00564490]
  0x004A27B3    33 c4                                            xor     eax, esp
  0x004A27B5    50                                               push    eax
  0x004A27B6    8d 44 24 58                                      lea     eax, [esp+64h+var_C]
  0x004A27BA    64 a3 00 00 00 00                                mov     large fs:0, eax
  0x004A27C0    68 dc 01 00 00                                   push    1DCh; Size
  0x004A27C5    e8 66 93 08 00                                   call    sub_52BB30    ; code_refs=[0x0052BB30]
  0x004A27CA    83 c4 04                                         add     esp, 4
  0x004A27CD    89 44 24 0c                                      mov     [esp+64h+var_58], eax
  0x004A27D1    c7 44 24 60 00 00 00 00                          mov     [esp+64h+var_4], 0
  0x004A27D9    85 c0                                            test    eax, eax
  0x004A27DB    74 09                                            jz      short loc_4A27E6    ; code_refs=[0x004A27E6]

loc_4A27DD: ; preds=loc_4A2790 succs=loc_4A27E8
  0x004A27DD    8b c8                                            mov     ecx, eax
  0x004A27DF    e8 2c 7a 07 00                                   call    sub_51A210    ; code_refs=[0x0051A210]
  0x004A27E4    eb 02                                            jmp     short loc_4A27E8    ; code_refs=[0x004A27E8]

loc_4A27E6: ; preds=loc_4A2790 succs=loc_4A27E8
  0x004A27E6    33 c0                                            xor     eax, eax

loc_4A27E8: ; preds=loc_4A27DD,loc_4A27E6 succs=loc_4A282D,loc_4A2876
  0x004A27E8    8b 0d d8 79 ae 04                                mov     ecx, dword_4AE79D8    ; data_refs=[0x04AE79D8]
  0x004A27EE    8b 15 c4 01 56 00                                mov     edx, dword_5601C4    ; data_refs=[0x005601C4]
  0x004A27F4    51                                               push    ecx
  0x004A27F5    8b 0d cc 79 ae 04                                mov     ecx, nHeight    ; data_refs=[0x04AE79CC]
  0x004A27FB    52                                               push    edx
  0x004A27FC    8b 15 74 fd a6 04                                mov     edx, nWidth    ; data_refs=[0x04A6FD74]
  0x004A2802    51                                               push    ecx
  0x004A2803    8b 0d dc 79 ae 04                                mov     ecx, hWnd    ; data_refs=[0x04AE79DC]
  0x004A2809    52                                               push    edx
  0x004A280A    51                                               push    ecx
  0x004A280B    83 cf ff                                         or      edi, 0FFFFFFFFh
  0x004A280E    8b c8                                            mov     ecx, eax
  0x004A2810    89 7c 24 74                                      mov     [esp+78h+var_4], edi
  0x004A2814    a3 f0 b2 bb 04                                   mov     dword_4BBB2F0, eax    ; data_refs=[0x04BBB2F0]
  0x004A2819    e8 42 74 07 00                                   call    sub_519C60    ; code_refs=[0x00519C60]
  0x004A281E    8b 0d f0 b2 bb 04                                mov     ecx, dword_4BBB2F0    ; data_refs=[0x04BBB2F0]
  0x004A2824    e8 b7 57 07 00                                   call    sub_517FE0    ; code_refs=[0x00517FE0]
  0x004A2829    3c 01                                            cmp     al, 1
  0x004A282B    75 49                                            jnz     short loc_4A2876    ; code_refs=[0x004A2876]

loc_4A282D: ; preds=loc_4A27E8 succs=loc_4A2859,loc_4A2862
  0x004A282D    ba 6e 0a 00 00                                   mov     edx, 0A6Eh
  0x004A2832    b9 e8 18 54 00                                   mov     ecx, offset aShareclientsev_2; "..\\ShareClientSeverCode\\main.cpp"    ; data_refs=[0x005418E8]
  0x004A2837    e8 14 86 08 00                                   call    sub_52AE50    ; code_refs=[0x0052AE50]
  0x004A283C    68 94 00 00 00                                   push    94h; Size
  0x004A2841    e8 ea 92 08 00                                   call    sub_52BB30    ; code_refs=[0x0052BB30]
  0x004A2846    83 c4 04                                         add     esp, 4
  0x004A2849    89 44 24 0c                                      mov     [esp+64h+var_58], eax
  0x004A284D    c7 44 24 60 01 00 00 00                          mov     [esp+64h+var_4], 1
  0x004A2855    85 c0                                            test    eax, eax
  0x004A2857    74 09                                            jz      short loc_4A2862    ; code_refs=[0x004A2862]

loc_4A2859: ; preds=loc_4A282D succs=loc_4A2864
  0x004A2859    8b c8                                            mov     ecx, eax
  0x004A285B    e8 60 7d 07 00                                   call    sub_51A5C0    ; code_refs=[0x0051A5C0]
  0x004A2860    eb 02                                            jmp     short loc_4A2864    ; code_refs=[0x004A2864]

loc_4A2862: ; preds=loc_4A282D succs=loc_4A2864
  0x004A2862    33 c0                                            xor     eax, eax

loc_4A2864: ; preds=loc_4A2859,loc_4A2862 succs=loc_4A2876
  0x004A2864    6a 01                                            push    1
  0x004A2866    8b c8                                            mov     ecx, eax
  0x004A2868    89 7c 24 64                                      mov     [esp+68h+var_4], edi
  0x004A286C    a3 cc 35 b3 04                                   mov     dword_4B335CC, eax    ; data_refs=[0x04B335CC]
  0x004A2871    e8 5a 83 07 00                                   call    sub_51ABD0    ; code_refs=[0x0051ABD0]

loc_4A2876: ; preds=loc_4A27E8,loc_4A2864 succs=loc_4A2895,loc_4A289F
  0x004A2876    e8 b5 6c 03 00                                   call    sub_4D9530    ; code_refs=[0x004D9530]
  0x004A287B    e8 b0 c1 fc ff                                   call    sub_46EA30    ; code_refs=[0x0046EA30]
  0x004A2880    b9 c0 13 54 00                                   mov     ecx, offset aDebugMbc; "__debug.mbc"    ; data_refs=[0x005413C0]
  0x004A2885    e8 66 c8 fc ff                                   call    sub_46F0F0    ; code_refs=[0x0046F0F0]
  0x004A288A    8b f0                                            mov     esi, eax
  0x004A288C    e8 8f c1 fc ff                                   call    sub_46EA20    ; code_refs=[0x0046EA20]
  0x004A2891    3b f7                                            cmp     esi, edi
  0x004A2893    74 0a                                            jz      short loc_4A289F    ; code_refs=[0x004A289F]

loc_4A2895: ; preds=loc_4A2876 succs=loc_4A289F
  0x004A2895    b9 10 2a 54 00                                   mov     ecx, offset aDebugPics; "debug\\pics\\"    ; data_refs=[0x00542A10]
  0x004A289A    e8 d1 6c 03 00                                   call    sub_4D9570    ; code_refs=[0x004D9570]

loc_4A289F: ; preds=loc_4A2876,loc_4A2895 succs=loc_4A28B2,loc_4A28BC
  0x004A289F    b9 10 1a 54 00                                   mov     ecx, offset aLandscape_0; "landscape\\"    ; data_refs=[0x00541A10]
  0x004A28A4    e8 c7 6c 03 00                                   call    sub_4D9570    ; code_refs=[0x004D9570]
  0x004A28A9    83 3d 34 36 b3 04 00                             cmp     dword_4B33634, 0    ; data_refs=[0x04B33634]
  0x004A28B0    74 0a                                            jz      short loc_4A28BC    ; code_refs=[0x004A28BC]

loc_4A28B2: ; preds=loc_4A289F succs=loc_4A28BC
  0x004A28B2    b9 f8 19 54 00                                   mov     ecx, offset aLandscapeHr_0; "landscape_hr\\"    ; data_refs=[0x005419F8]
  0x004A28B7    e8 b4 6c 03 00                                   call    sub_4D9570    ; code_refs=[0x004D9570]

loc_4A28BC: ; preds=loc_4A289F,loc_4A28B2 succs=loc_4A28C5,loc_4A28CF
  0x004A28BC    83 3d 38 36 b3 04 00                             cmp     dword_4B33638, 0    ; data_refs=[0x04B33638]
  0x004A28C3    74 0a                                            jz      short loc_4A28CF    ; code_refs=[0x004A28CF]

loc_4A28C5: ; preds=loc_4A28BC succs=loc_4A28CF
  0x004A28C5    b9 e8 19 54 00                                   mov     ecx, offset aLandscapePh_0; "landscape_ph\\"    ; data_refs=[0x005419E8]
  0x004A28CA    e8 a1 6c 03 00                                   call    sub_4D9570    ; code_refs=[0x004D9570]

loc_4A28CF: ; preds=loc_4A28BC,loc_4A28C5 succs=loc_4A28D8,loc_4A28E2
  0x004A28CF    83 3d 3c 36 b3 04 00                             cmp     dword_4B3363C, 0    ; data_refs=[0x04B3363C]
  0x004A28D6    74 0a                                            jz      short loc_4A28E2    ; code_refs=[0x004A28E2]

loc_4A28D8: ; preds=loc_4A28CF succs=loc_4A28E2
  0x004A28D8    b9 d8 19 54 00                                   mov     ecx, offset aLandscapeRd_0; "landscape_rd\\"    ; data_refs=[0x005419D8]
  0x004A28DD    e8 8e 6c 03 00                                   call    sub_4D9570    ; code_refs=[0x004D9570]

loc_4A28E2: ; preds=loc_4A28CF,loc_4A28D8 succs=loc_4A28F5,loc_4A28FF
  0x004A28E2    b9 fc 29 54 00                                   mov     ecx, offset aModelsTextures; "models\\textures\\"    ; data_refs=[0x005429FC]
  0x004A28E7    e8 84 6c 03 00                                   call    sub_4D9570    ; code_refs=[0x004D9570]
  0x004A28EC    83 3d 34 36 b3 04 00                             cmp     dword_4B33634, 0    ; data_refs=[0x04B33634]
  0x004A28F3    74 0a                                            jz      short loc_4A28FF    ; code_refs=[0x004A28FF]

loc_4A28F5: ; preds=loc_4A28E2 succs=loc_4A28FF
  0x004A28F5    b9 e8 29 54 00                                   mov     ecx, offset aModelsHrTextur; "models_hr\\textures\\"    ; data_refs=[0x005429E8]
  0x004A28FA    e8 71 6c 03 00                                   call    sub_4D9570    ; code_refs=[0x004D9570]

loc_4A28FF: ; preds=loc_4A28E2,loc_4A28F5 succs=loc_4A2908,loc_4A2912
  0x004A28FF    83 3d 38 36 b3 04 00                             cmp     dword_4B33638, 0    ; data_refs=[0x04B33638]
  0x004A2906    74 0a                                            jz      short loc_4A2912    ; code_refs=[0x004A2912]

loc_4A2908: ; preds=loc_4A28FF succs=loc_4A2912
  0x004A2908    b9 d4 29 54 00                                   mov     ecx, offset aModelsPhTextur; "models_ph\\textures\\"    ; data_refs=[0x005429D4]
  0x004A290D    e8 5e 6c 03 00                                   call    sub_4D9570    ; code_refs=[0x004D9570]

loc_4A2912: ; preds=loc_4A28FF,loc_4A2908 succs=loc_4A291B,loc_4A2925
  0x004A2912    83 3d 3c 36 b3 04 00                             cmp     dword_4B3363C, 0    ; data_refs=[0x04B3363C]
  0x004A2919    74 0a                                            jz      short loc_4A2925    ; code_refs=[0x004A2925]

loc_4A291B: ; preds=loc_4A2912 succs=loc_4A2925
  0x004A291B    b9 c0 29 54 00                                   mov     ecx, offset aModelsRdTextur; "models_rd\\textures\\"    ; data_refs=[0x005429C0]
  0x004A2920    e8 4b 6c 03 00                                   call    sub_4D9570    ; code_refs=[0x004D9570]

loc_4A2925: ; preds=loc_4A2912,loc_4A291B succs=loc_4A2A4F,loc_4A2A6E
  0x004A2925    b9 b4 29 54 00                                   mov     ecx, offset aTextures; "textures\\"    ; data_refs=[0x005429B4]
  0x004A292A    e8 41 6c 03 00                                   call    sub_4D9570    ; code_refs=[0x004D9570]
  0x004A292F    b9 a4 29 54 00                                   mov     ecx, offset aTexturesFx; "textures\\fx\\"    ; data_refs=[0x005429A4]
  0x004A2934    e8 37 6c 03 00                                   call    sub_4D9570    ; code_refs=[0x004D9570]
  0x004A2939    b9 90 29 54 00                                   mov     ecx, offset aTexturesEmblem; "textures\\emblems\\"    ; data_refs=[0x00542990]
  0x004A293E    e8 2d 6c 03 00                                   call    sub_4D9570    ; code_refs=[0x004D9570]
  0x004A2943    b9 88 29 54 00                                   mov     ecx, offset aXadd; "xadd\\"    ; data_refs=[0x00542988]
  0x004A2948    e8 23 6c 03 00                                   call    sub_4D9570    ; code_refs=[0x004D9570]
  0x004A294D    b9 7c 29 54 00                                   mov     ecx, offset aPlayers; "players\\"    ; data_refs=[0x0054297C]
  0x004A2952    e8 19 6c 03 00                                   call    sub_4D9570    ; code_refs=[0x004D9570]
  0x004A2957    e8 44 70 03 00                                   call    sub_4D99A0    ; code_refs=[0x004D99A0]
  0x004A295C    8b 0d f0 b2 bb 04                                mov     ecx, dword_4BBB2F0    ; data_refs=[0x04BBB2F0]
  0x004A2962    6a 01                                            push    1
  0x004A2964    68 89 00 00 00                                   push    89h
  0x004A2969    e8 52 5a 07 00                                   call    sub_5183C0    ; code_refs=[0x005183C0]
  0x004A296E    8b 0d f0 b2 bb 04                                mov     ecx, dword_4BBB2F0    ; data_refs=[0x04BBB2F0]
  0x004A2974    6a 00                                            push    0
  0x004A2976    6a 1d                                            push    1Dh
  0x004A2978    e8 43 5a 07 00                                   call    sub_5183C0    ; code_refs=[0x005183C0]
  0x004A297D    6a 44                                            push    44h ; 'D'; Size
  0x004A297F    8d 54 24 14                                      lea     edx, [esp+68h+var_54]
  0x004A2983    6a 00                                            push    0; Val
  0x004A2985    52                                               push    edx; void *
  0x004A2986    e8 0f bb 08 00                                   call    memset    ; code_refs=[0x0052E49A]
  0x004A298B    d9 e8                                            fld1
  0x004A298D    8b 0d f0 b2 bb 04                                mov     ecx, dword_4BBB2F0    ; data_refs=[0x04BBB2F0]
  0x004A2993    d9 54 24 1c                                      fst     [esp+70h+var_54]
  0x004A2997    d9 54 24 20                                      fst     [esp+70h+var_50]
  0x004A299B    83 c4 0c                                         add     esp, 0Ch
  0x004A299E    d9 54 24 18                                      fst     [esp+64h+var_4C]
  0x004A29A2    8d 44 24 10                                      lea     eax, [esp+64h+var_54]
  0x004A29A6    d9 54 24 1c                                      fst     [esp+64h+var_48]
  0x004A29AA    50                                               push    eax
  0x004A29AB    d9 ee                                            fldz
  0x004A29AD    d9 54 24 34                                      fst     [esp+68h+var_34]
  0x004A29B1    d9 54 24 38                                      fst     [esp+68h+var_30]
  0x004A29B5    d9 54 24 3c                                      fst     [esp+68h+var_2C]
  0x004A29B9    d9 5c 24 54                                      fstp    [esp+68h+var_14]
  0x004A29BD    d9 54 24 24                                      fst     [esp+68h+var_44]
  0x004A29C1    d9 54 24 28                                      fst     [esp+68h+var_40]
  0x004A29C5    d9 5c 24 2c                                      fstp    [esp+68h+var_3C]
  0x004A29C9    e8 72 5e 07 00                                   call    sub_518840    ; code_refs=[0x00518840]
  0x004A29CE    8b 0d f0 b2 bb 04                                mov     ecx, dword_4BBB2F0    ; data_refs=[0x04BBB2F0]
  0x004A29D4    6a 03                                            push    3
  0x004A29D6    68 8c 00 00 00                                   push    8Ch
  0x004A29DB    e8 e0 59 07 00                                   call    sub_5183C0    ; code_refs=[0x005183C0]
  0x004A29E0    8b 0d f0 b2 bb 04                                mov     ecx, dword_4BBB2F0    ; data_refs=[0x04BBB2F0]
  0x004A29E6    6a 01                                            push    1
  0x004A29E8    6a 30                                            push    30h ; '0'
  0x004A29EA    e8 d1 59 07 00                                   call    sub_5183C0    ; code_refs=[0x005183C0]
  0x004A29EF    d9 05 74 28 54 00                                fld     ds:flt_542874    ; data_refs=[0x00542874]
  0x004A29F5    d9 5c 24 0c                                      fstp    [esp+64h+var_58]
  0x004A29F9    8b 4c 24 0c                                      mov     ecx, [esp+64h+var_58]
  0x004A29FD    51                                               push    ecx
  0x004A29FE    8b 0d f0 b2 bb 04                                mov     ecx, dword_4BBB2F0    ; data_refs=[0x04BBB2F0]
  0x004A2A04    6a 24                                            push    24h ; '$'
  0x004A2A06    e8 b5 59 07 00                                   call    sub_5183C0    ; code_refs=[0x005183C0]
  0x004A2A0B    d9 05 28 dc 53 00                                fld     ds:flt_53DC28    ; data_refs=[0x0053DC28]
  0x004A2A11    8b 0d f0 b2 bb 04                                mov     ecx, dword_4BBB2F0    ; data_refs=[0x04BBB2F0]
  0x004A2A17    d9 5c 24 0c                                      fstp    [esp+64h+var_58]
  0x004A2A1B    8b 54 24 0c                                      mov     edx, [esp+64h+var_58]
  0x004A2A1F    52                                               push    edx
  0x004A2A20    6a 25                                            push    25h ; '%'
  0x004A2A22    e8 99 59 07 00                                   call    sub_5183C0    ; code_refs=[0x005183C0]
  0x004A2A27    8b 0d e4 01 56 00                                mov     ecx, dword_5601E4    ; data_refs=[0x005601E4]
  0x004A2A2D    c1 e1 05                                         shl     ecx, 5
  0x004A2A30    e8 5b 6d 03 00                                   call    sub_4D9790    ; code_refs=[0x004D9790]
  0x004A2A35    6a 18                                            push    18h; Size
  0x004A2A37    e8 f4 90 08 00                                   call    sub_52BB30    ; code_refs=[0x0052BB30]
  0x004A2A3C    83 c4 04                                         add     esp, 4
  0x004A2A3F    89 44 24 0c                                      mov     [esp+64h+var_58], eax
  0x004A2A43    c7 44 24 60 02 00 00 00                          mov     [esp+64h+var_4], 2
  0x004A2A4B    85 c0                                            test    eax, eax
  0x004A2A4D    74 1f                                            jz      short loc_4A2A6E    ; code_refs=[0x004A2A6E]

loc_4A2A4F: ; preds=loc_4A2925 succs=loc_4A2A70
  0x004A2A4F    8b 0d e4 01 56 00                                mov     ecx, dword_5601E4    ; data_refs=[0x005601E4]
  0x004A2A55    6a 00                                            push    0
  0x004A2A57    68 12 01 00 00                                   push    112h
  0x004A2A5C    c1 e1 05                                         shl     ecx, 5
  0x004A2A5F    68 00 02 00 00                                   push    200h
  0x004A2A64    51                                               push    ecx
  0x004A2A65    8b c8                                            mov     ecx, eax
  0x004A2A67    e8 34 79 07 00                                   call    sub_51A3A0    ; code_refs=[0x0051A3A0]
  0x004A2A6C    eb 02                                            jmp     short loc_4A2A70    ; code_refs=[0x004A2A70]

loc_4A2A6E: ; preds=loc_4A2925 succs=loc_4A2A70
  0x004A2A6E    33 c0                                            xor     eax, eax

loc_4A2A70: ; preds=loc_4A2A4F,loc_4A2A6E succs=loc_4A2AAA,loc_4A2AD3
  0x004A2A70    a3 f8 c4 a9 04                                   mov     dword_4A9C4F8, eax    ; data_refs=[0x04A9C4F8]
  0x004A2A75    a1 e8 01 56 00                                   mov     eax, dword_5601E8    ; data_refs=[0x005601E8]
  0x004A2A7A    8d 0c c5 00 00 00 00                             lea     ecx, ds:0[eax*8]
  0x004A2A81    2b c8                                            sub     ecx, eax
  0x004A2A83    03 c9                                            add     ecx, ecx
  0x004A2A85    03 c9                                            add     ecx, ecx
  0x004A2A87    89 7c 24 60                                      mov     [esp+64h+var_4], edi
  0x004A2A8B    e8 00 6d 03 00                                   call    sub_4D9790    ; code_refs=[0x004D9790]
  0x004A2A90    6a 18                                            push    18h; Size
  0x004A2A92    e8 99 90 08 00                                   call    sub_52BB30    ; code_refs=[0x0052BB30]
  0x004A2A97    83 c4 04                                         add     esp, 4
  0x004A2A9A    89 44 24 0c                                      mov     [esp+64h+var_58], eax
  0x004A2A9E    c7 44 24 60 03 00 00 00                          mov     [esp+64h+var_4], 3
  0x004A2AA6    85 c0                                            test    eax, eax
  0x004A2AA8    74 29                                            jz      short loc_4A2AD3    ; code_refs=[0x004A2AD3]

loc_4A2AAA: ; preds=loc_4A2A70 succs=loc_4A2AD5
  0x004A2AAA    8b 0d e8 01 56 00                                mov     ecx, dword_5601E8    ; data_refs=[0x005601E8]
  0x004A2AB0    8d 14 cd 00 00 00 00                             lea     edx, ds:0[ecx*8]
  0x004A2AB7    6a 00                                            push    0
  0x004A2AB9    2b d1                                            sub     edx, ecx
  0x004A2ABB    68 c2 01 00 00                                   push    1C2h
  0x004A2AC0    03 d2                                            add     edx, edx
  0x004A2AC2    68 00 02 00 00                                   push    200h
  0x004A2AC7    03 d2                                            add     edx, edx
  0x004A2AC9    52                                               push    edx
  0x004A2ACA    8b c8                                            mov     ecx, eax
  0x004A2ACC    e8 cf 78 07 00                                   call    sub_51A3A0    ; code_refs=[0x0051A3A0]
  0x004A2AD1    eb 02                                            jmp     short loc_4A2AD5    ; code_refs=[0x004A2AD5]

loc_4A2AD3: ; preds=loc_4A2A70 succs=loc_4A2AD5
  0x004A2AD3    33 c0                                            xor     eax, eax

loc_4A2AD5: ; preds=loc_4A2AAA,loc_4A2AD3 succs=loc_4A2AF8,loc_4A2B14
  0x004A2AD5    6a 18                                            push    18h; Size
  0x004A2AD7    89 7c 24 64                                      mov     [esp+68h+var_4], edi
  0x004A2ADB    a3 20 79 ae 04                                   mov     dword_4AE7920, eax    ; data_refs=[0x04AE7920]
  0x004A2AE0    e8 4b 90 08 00                                   call    sub_52BB30    ; code_refs=[0x0052BB30]
  0x004A2AE5    83 c4 04                                         add     esp, 4
  0x004A2AE8    89 44 24 0c                                      mov     [esp+64h+var_58], eax
  0x004A2AEC    c7 44 24 60 04 00 00 00                          mov     [esp+64h+var_4], 4
  0x004A2AF4    85 c0                                            test    eax, eax
  0x004A2AF6    74 1c                                            jz      short loc_4A2B14    ; code_refs=[0x004A2B14]

loc_4A2AF8: ; preds=loc_4A2AD5 succs=loc_4A2B16
  0x004A2AF8    8b 0d ec 01 56 00                                mov     ecx, dword_5601EC    ; data_refs=[0x005601EC]
  0x004A2AFE    6a 00                                            push    0
  0x004A2B00    6a 65                                            push    65h ; 'e'
  0x004A2B02    8d 14 09                                         lea     edx, [ecx+ecx]
  0x004A2B05    68 00 02 00 00                                   push    200h
  0x004A2B0A    52                                               push    edx
  0x004A2B0B    8b c8                                            mov     ecx, eax
  0x004A2B0D    e8 3e 79 07 00                                   call    sub_51A450    ; code_refs=[0x0051A450]
  0x004A2B12    eb 02                                            jmp     short loc_4A2B16    ; code_refs=[0x004A2B16]

loc_4A2B14: ; preds=loc_4A2AD5 succs=loc_4A2B16
  0x004A2B14    33 c0                                            xor     eax, eax

loc_4A2B16: ; preds=loc_4A2AF8,loc_4A2B14 succs=loc_4A2B39,loc_4A2B55
  0x004A2B16    6a 18                                            push    18h; Size
  0x004A2B18    89 7c 24 64                                      mov     [esp+68h+var_4], edi
  0x004A2B1C    a3 dc 35 b3 04                                   mov     dword_4B335DC, eax    ; data_refs=[0x04B335DC]
  0x004A2B21    e8 0a 90 08 00                                   call    sub_52BB30    ; code_refs=[0x0052BB30]
  0x004A2B26    83 c4 04                                         add     esp, 4
  0x004A2B29    89 44 24 0c                                      mov     [esp+64h+var_58], eax
  0x004A2B2D    c7 44 24 60 05 00 00 00                          mov     [esp+64h+var_4], 5
  0x004A2B35    85 c0                                            test    eax, eax
  0x004A2B37    74 1c                                            jz      short loc_4A2B55    ; code_refs=[0x004A2B55]

loc_4A2B39: ; preds=loc_4A2B16 succs=loc_4A2B57
  0x004A2B39    8b 0d f0 01 56 00                                mov     ecx, dword_5601F0    ; data_refs=[0x005601F0]
  0x004A2B3F    6a 00                                            push    0
  0x004A2B41    6a 65                                            push    65h ; 'e'
  0x004A2B43    8d 14 09                                         lea     edx, [ecx+ecx]
  0x004A2B46    68 00 02 00 00                                   push    200h
  0x004A2B4B    52                                               push    edx
  0x004A2B4C    8b c8                                            mov     ecx, eax
  0x004A2B4E    e8 fd 78 07 00                                   call    sub_51A450    ; code_refs=[0x0051A450]
  0x004A2B53    eb 02                                            jmp     short loc_4A2B57    ; code_refs=[0x004A2B57]

loc_4A2B55: ; preds=loc_4A2B16 succs=loc_4A2B57
  0x004A2B55    33 c0                                            xor     eax, eax

loc_4A2B57: ; preds=loc_4A2B39,loc_4A2B55 succs=loc_4A2BC1,loc_4A2BD4
  0x004A2B57    8b 0d f0 b2 bb 04                                mov     ecx, dword_4BBB2F0    ; data_refs=[0x04BBB2F0]
  0x004A2B5D    68 c8 35 b3 04                                   push    offset dword_4B335C8    ; data_refs=[0x04B335C8]
  0x004A2B62    6a 08                                            push    8
  0x004A2B64    89 7c 24 68                                      mov     [esp+6Ch+var_4], edi
  0x004A2B68    a3 e0 35 b3 04                                   mov     dword_4B335E0, eax    ; data_refs=[0x04B335E0]
  0x004A2B6D    e8 be 61 07 00                                   call    sub_518D30    ; code_refs=[0x00518D30]
  0x004A2B72    d9 e8                                            fld1
  0x004A2B74    6a 00                                            push    0; int
  0x004A2B76    51                                               push    ecx
  0x004A2B77    8b 0d f0 b2 bb 04                                mov     ecx, dword_4BBB2F0    ; data_refs=[0x04BBB2F0]
  0x004A2B7D    d9 1c 24                                         fstp    [esp+6Ch+var_6C]; float
  0x004A2B80    68 00 00 00 ff                                   push    0FF000000h; int
  0x004A2B85    6a 03                                            push    3; int
  0x004A2B87    6a 00                                            push    0; int
  0x004A2B89    6a 00                                            push    0; int
  0x004A2B8B    e8 d0 58 07 00                                   call    sub_518460    ; code_refs=[0x00518460]
  0x004A2B90    e8 2b e9 ff ff                                   call    sub_4A14C0    ; code_refs=[0x004A14C0]
  0x004A2B95    ba b6 0a 00 00                                   mov     edx, 0AB6h
  0x004A2B9A    b9 e8 18 54 00                                   mov     ecx, offset aShareclientsev_2; "..\\ShareClientSeverCode\\main.cpp"    ; data_refs=[0x005418E8]
  0x004A2B9F    e8 ac 82 08 00                                   call    sub_52AE50    ; code_refs=[0x0052AE50]
  0x004A2BA4    68 a0 09 00 00                                   push    9A0h; Size
  0x004A2BA9    e8 82 8f 08 00                                   call    sub_52BB30    ; code_refs=[0x0052BB30]
  0x004A2BAE    83 c4 04                                         add     esp, 4
  0x004A2BB1    89 44 24 0c                                      mov     [esp+64h+var_58], eax
  0x004A2BB5    c7 44 24 60 06 00 00 00                          mov     [esp+64h+var_4], 6
  0x004A2BBD    85 c0                                            test    eax, eax
  0x004A2BBF    74 13                                            jz      short loc_4A2BD4    ; code_refs=[0x004A2BD4]

loc_4A2BC1: ; preds=loc_4A2B57 succs=loc_4A2BD6
  0x004A2BC1    68 6c 29 54 00                                   push    offset aShadersPixel; "Shaders\\Pixel\\"    ; data_refs=[0x0054296C]
  0x004A2BC6    68 5c 29 54 00                                   push    offset aShadersVertex; "Shaders\\Vertex\\"    ; data_refs=[0x0054295C]
  0x004A2BCB    8b c8                                            mov     ecx, eax
  0x004A2BCD    e8 1e a7 07 00                                   call    sub_51D2F0    ; code_refs=[0x0051D2F0]
  0x004A2BD2    eb 02                                            jmp     short loc_4A2BD6    ; code_refs=[0x004A2BD6]

loc_4A2BD4: ; preds=loc_4A2B57 succs=loc_4A2BD6
  0x004A2BD4    33 c0                                            xor     eax, eax

loc_4A2BD6: ; preds=loc_4A2BC1,loc_4A2BD4 succs=
  0x004A2BD6    a3 f4 b2 bb 04                                   mov     dword_4BBB2F4, eax    ; data_refs=[0x04BBB2F4]
  0x004A2BDB    8b 4c 24 58                                      mov     ecx, [esp+64h+var_C]
  0x004A2BDF    64 89 0d 00 00 00 00                             mov     large fs:0, ecx
  0x004A2BE6    59                                               pop     ecx
  0x004A2BE7    5f                                               pop     edi
  0x004A2BE8    5e                                               pop     esi
  0x004A2BE9    8b 4c 24 48                                      mov     ecx, [esp+58h+var_10]
  0x004A2BED    33 cc                                            xor     ecx, esp
  0x004A2BEF    e8 ac b8 08 00                                   call    sub_52E4A0    ; code_refs=[0x0052E4A0]
  0x004A2BF4    83 c4 58                                         add     esp, 58h
  0x004A2BF7    c3                                               retn

loc_530FF0:
  0x00530FF0    8b 45 a8                                         mov     eax, [ebp-58h]
  0x00530FF3    50                                               push    eax
  0x00530FF4    e8 b7 aa ff ff                                   call    sub_52BAB0    ; code_refs=[0x0052BAB0]
  0x00530FF9    59                                               pop     ecx
  0x00530FFA    c3                                               retn

loc_530FFB:
  0x00530FFB    8b 45 a8                                         mov     eax, [ebp-58h]
  0x00530FFE    50                                               push    eax
  0x00530FFF    e8 ac aa ff ff                                   call    sub_52BAB0    ; code_refs=[0x0052BAB0]
  0x00531004    59                                               pop     ecx
  0x00531005    c3                                               retn

loc_531006:
  0x00531006    8b 45 a8                                         mov     eax, [ebp-58h]
  0x00531009    50                                               push    eax
  0x0053100A    e8 a1 aa ff ff                                   call    sub_52BAB0    ; code_refs=[0x0052BAB0]
  0x0053100F    59                                               pop     ecx
  0x00531010    c3                                               retn

loc_531011:
  0x00531011    8b 45 a8                                         mov     eax, [ebp-58h]
  0x00531014    50                                               push    eax
  0x00531015    e8 96 aa ff ff                                   call    sub_52BAB0    ; code_refs=[0x0052BAB0]
  0x0053101A    59                                               pop     ecx
  0x0053101B    c3                                               retn

loc_53101C:
  0x0053101C    8b 45 a8                                         mov     eax, [ebp-58h]
  0x0053101F    50                                               push    eax
  0x00531020    e8 8b aa ff ff                                   call    sub_52BAB0    ; code_refs=[0x0052BAB0]
  0x00531025    59                                               pop     ecx
  0x00531026    c3                                               retn

loc_531027:
  0x00531027    8b 45 a8                                         mov     eax, [ebp-58h]
  0x0053102A    50                                               push    eax
  0x0053102B    e8 80 aa ff ff                                   call    sub_52BAB0    ; code_refs=[0x0052BAB0]
  0x00531030    59                                               pop     ecx
  0x00531031    c3                                               retn

loc_531032:
  0x00531032    8b 45 a8                                         mov     eax, [ebp-58h]
  0x00531035    50                                               push    eax
  0x00531036    e8 75 aa ff ff                                   call    sub_52BAB0    ; code_refs=[0x0052BAB0]
  0x0053103B    59                                               pop     ecx
  0x0053103C    c3                                               retn

loc_53103D: ; preds= succs=loc_52E5C6
  0x0053103D    8b 54 24 08                                      mov     edx, [esp+arg_4]
  0x00531041    8d 42 ac                                         lea     eax, [edx-54h]
  0x00531044    8b 4a a8                                         mov     ecx, [edx-58h]
  0x00531047    33 c8                                            xor     ecx, eax
  0x00531049    e8 52 d4 ff ff                                   call    sub_52E4A0    ; code_refs=[0x0052E4A0]
  0x0053104E    83 c0 08                                         add     eax, 8
  0x00531051    8b 4a fc                                         mov     ecx, [edx-4]
  0x00531054    33 c8                                            xor     ecx, eax
  0x00531056    e8 45 d4 ff ff                                   call    sub_52E4A0    ; code_refs=[0x0052E4A0]
  0x0053105B    b8 ac 89 55 00                                   mov     eax, offset stru_5589AC    ; data_refs=[0x005589AC]
  0x00531060    e9 61 d5 ff ff                                   jmp     __CxxFrameHandler3    ; code_refs=[0x0052E5C6]
; END_FUNC 0x004A2790 sub_4A2790


; ======================================================================================================================
; FUNC 0x004A48A0 sub_4A48A0 size=3679 segment=.text
; STRINGS:
;   0x00564490 'N'
;   0x00542D70 'params'
;   0x00542D6C 'mbc'
;   0x0053EA18 'g'
;   0x0053EA14 'r.log'
;   0x0053EA10 'Error.log'
;   0x00542D64 '.log'
;   0x00542D60 'test.log'
;   0x00542D50 'logs\\memory.log'
;   0x00542D54 '\\memory.log'
;   0x00542D58 'ory.log'
;   0x00542D5C 'log'
;   0x00542D40 '**** Start: '
;   0x005418D8 '%A, %d %B %Y'
;   0x00541740 '  '
;   0x0053DB00 '\n'
;   0x00542D10 'ERROR: init_first2: CoInitialize error code = '
;   0x005418D0 '%d\n'
;   0x00542D04 'config.cfg'
;   0x00542CFC 'LANG'
;   0x00542CF8 '_e'
;   0x00542CF4 '_p'
;   0x00542CF0 '_i'
;   0x00542CE8 'AUTOFOG'
;   0x00542CE0 'FOGDIST'
;   0x00542CD4 'REFLQUAL'
;   0x00542CCC 'EFFECTS'
;   0x00542CC4 'LODS'
;   0x00542CB4 'HARDWARE_CURSOR'
;   0x00542CA0 'DESCR_AUTO_POPUP'
;   0x00542C90 'INVITE_MESSAGES'
;   0x00541A60 'loadcount.bin'
;   0x005602F0 'QWERTYUIOPASDFGHJKLZXCVBNM'
;   0x005602D4 'qwertyuiopasdfghjklzxcvbnm'
;   0x00542C84 'SphereDebug'
;   0x00541FD0 'CreateFileMapping failed'
;   0x00542C6C 'MapViewOfFile failed'
;   0x00542C64 'Spider'
;   0x00542C54 'SpiderWclName'
;   0x005422A4 'debug.cfg'
;   0x00542C48 'SHOWVIDEO'
;   0x00542C40 'REFRESH'
;   0x00542C28 'MEMORY_WARNING_AS_ERROR'
;   0x00542C1C 'WINDOWED'
;   0x00542C14 'XRES'
;   0x005601C4 ' '
;   0x00542C0C 'YRES'
;   0x00542C04 'DEPTH'
;   0x00542BFC 'GRASS'
;   0x00542BEC 'LOD_DISTANCE'
;   0x00542BDC 'MIN_LOD_DIST'
;   0x00542BD0 'POSTEFFECTS'
;   0x00542BBC 'landscape_hr'
;   0x00542BAC 'landscape_ph'
;   0x00542B9C 'landscape_rd'
;   0x00542B90 'VERTSYNC'
;   0x00542B84 'landscape'
;   0x005418E8 '..\\ShareClientSeverCode\\main.cpp'
;   0x00542B70 'xadd\\snowpath.bin'
;   0x00542B5C 'fonts\\font1%s.pcx'
;   0x00542B4C 'fonts\\font1.pcx'
;   0x00542B50 's\\font1.pcx'
;   0x00542B54 'nt1.pcx'
;   0x00542B58 'pcx'
;   ... 72 total
; ----------------------------------------------------------------------------------------------------------------------

loc_4A48A0: ; preds= succs=loc_4A49D2
  0x004A48A0    6a ff                                            push    0FFFFFFFFh
  0x004A48A2    68 97 10 53 00                                   push    offset SEH_4648A0    ; data_refs=[0x00531097]
  0x004A48A7    64 a1 00 00 00 00                                mov     eax, large fs:0
  0x004A48AD    50                                               push    eax
  0x004A48AE    81 ec f4 01 00 00                                sub     esp, 1F4h
  0x004A48B4    a1 90 44 56 00                                   mov     eax, dword_564490    ; data_refs=[0x00564490]
  0x004A48B9    33 c4                                            xor     eax, esp
  0x004A48BB    89 84 24 f0 01 00 00                             mov     [esp+200h+var_10], eax
  0x004A48C2    53                                               push    ebx
  0x004A48C3    55                                               push    ebp
  0x004A48C4    56                                               push    esi
  0x004A48C5    57                                               push    edi
  0x004A48C6    a1 90 44 56 00                                   mov     eax, dword_564490    ; data_refs=[0x00564490]
  0x004A48CB    33 c4                                            xor     eax, esp
  0x004A48CD    50                                               push    eax
  0x004A48CE    8d 84 24 08 02 00 00                             lea     eax, [esp+214h+var_C]
  0x004A48D5    64 a3 00 00 00 00                                mov     large fs:0, eax
  0x004A48DB    8d 4c 24 30                                      lea     ecx, [esp+214h+var_1E4]
  0x004A48DF    e8 dc b4 01 00                                   call    unknown_libname_2; Microsoft VisualC 2-14/net runtime    ; code_refs=[0x004BFDC0]
  0x004A48E4    33 f6                                            xor     esi, esi
  0x004A48E6    b9 e0 9a 49 00                                   mov     ecx, offset sub_499AE0    ; data_refs=[0x00499AE0]
  0x004A48EB    89 b4 24 10 02 00 00                             mov     [esp+214h+var_4], esi
  0x004A48F2    e8 09 a1 fc ff                                   call    sub_46EA00    ; code_refs=[0x0046EA00]
  0x004A48F7    b9 70 2d 54 00                                   mov     ecx, offset aParams; "params"    ; data_refs=[0x00542D70]
  0x004A48FC    e8 1f a8 fc ff                                   call    sub_46F120    ; code_refs=[0x0046F120]
  0x004A4901    b9 6c 2d 54 00                                   mov     ecx, offset unk_542D6C    ; data_refs=[0x00542D6C]
  0x004A4906    e8 15 a8 fc ff                                   call    sub_46F120    ; code_refs=[0x0046F120]
  0x004A490B    66 8b 15 18 ea 53 00                             mov     dx, word ptr ds:aErrorLog+8; "g"    ; data_refs=[0x0053EA18]
  0x004A4912    8b 0d 14 ea 53 00                                mov     ecx, dword ptr ds:aErrorLog+4; "r.log"    ; data_refs=[0x0053EA14]
  0x004A4918    a1 10 ea 53 00                                   mov     eax, dword ptr ds:aErrorLog; "Error.log"    ; data_refs=[0x0053EA10]
  0x004A491D    8b 1d ec c2 53 00                                mov     ebx, ds:fflush    ; data_refs=[0x0053C2EC]
  0x004A4923    8b 2d 10 c4 53 00                                mov     ebp, ds:fclose    ; data_refs=[0x0053C410]
  0x004A4929    89 0d c4 05 ac 04                                mov     dword_4AC05C4, ecx    ; data_refs=[0x04AC05C4]
  0x004A492F    8b 0d 64 2d 54 00                                mov     ecx, ds:dword_542D64    ; data_refs=[0x00542D64]
  0x004A4935    66 89 15 c8 05 ac 04                             mov     word_4AC05C8, dx    ; data_refs=[0x04AC05C8]
  0x004A493C    8a 15 68 2d 54 00                                mov     dl, ds:byte_542D68    ; data_refs=[0x00542D68]
  0x004A4942    a3 c0 05 ac 04                                   mov     dword_4AC05C0, eax    ; data_refs=[0x04AC05C0]
  0x004A4947    a1 60 2d 54 00                                   mov     eax, ds:dword_542D60    ; data_refs=[0x00542D60]
  0x004A494C    89 0d 04 06 ac 04                                mov     dword_4AC0604, ecx    ; data_refs=[0x04AC0604]
  0x004A4952    8b 0d 50 2d 54 00                                mov     ecx, ds:dword_542D50    ; data_refs=[0x00542D50]
  0x004A4958    88 15 08 06 ac 04                                mov     byte_4AC0608, dl    ; data_refs=[0x04AC0608]
  0x004A495E    8b 15 54 2d 54 00                                mov     edx, ds:dword_542D54    ; data_refs=[0x00542D54]
  0x004A4964    a3 00 06 ac 04                                   mov     dword_4AC0600, eax    ; data_refs=[0x04AC0600]
  0x004A4969    b8 20 a1 07 00                                   mov     eax, 7A120h
  0x004A496E    89 0d 40 06 ac 04                                mov     dword_4AC0640, ecx    ; data_refs=[0x04AC0640]
  0x004A4974    8b 0d 58 2d 54 00                                mov     ecx, ds:dword_542D58    ; data_refs=[0x00542D58]
  0x004A497A    89 15 44 06 ac 04                                mov     dword_4AC0644, edx    ; data_refs=[0x04AC0644]
  0x004A4980    8b 15 5c 2d 54 00                                mov     edx, ds:off_542D5C    ; data_refs=[0x00542D5C]
  0x004A4986    89 35 f4 05 ac 04                                mov     dword_4AC05F4, esi    ; data_refs=[0x04AC05F4]
  0x004A498C    c7 05 fc 05 ac 04 80 96 98 00                    mov     dword_4AC05FC, offset unk_989680    ; data_refs=[0x00989680,0x04AC05FC]
  0x004A4996    89 35 34 06 ac 04                                mov     dword_4AC0634, esi    ; data_refs=[0x04AC0634]
  0x004A499C    a3 3c 06 ac 04                                   mov     dword_4AC063C, eax    ; data_refs=[0x04AC063C]
  0x004A49A1    89 0d 48 06 ac 04                                mov     dword_4AC0648, ecx    ; data_refs=[0x04AC0648]
  0x004A49A7    89 15 4c 06 ac 04                                mov     dword_4AC064C, edx    ; data_refs=[0x04AC064C]
  0x004A49AD    89 35 74 06 ac 04                                mov     dword_4AC0674, esi    ; data_refs=[0x04AC0674]
  0x004A49B3    a3 7c 06 ac 04                                   mov     dword_4AC067C, eax    ; data_refs=[0x04AC067C]
  0x004A49B8    c7 05 00 e1 a4 04 03 00 00 00                    mov     dword_4A4E100, 3    ; data_refs=[0x04A4E100]
  0x004A49C2    89 74 24 14                                      mov     [esp+214h+var_200], esi
  0x004A49C6    bf f8 05 ac 04                                   mov     edi, offset dword_4AC05F8    ; data_refs=[0x04AC05F8]
  0x004A49CB    eb 05                                            jmp     short loc_4A49D2    ; code_refs=[0x004A49D2]

loc_4A49D0: ; preds=loc_4A4AF3 succs=loc_4A49D2
  0x004A49D0    33 f6                                            xor     esi, esi

loc_4A49D2: ; preds=loc_4A48A0,loc_4A49D0 succs=loc_4A49DB,loc_4A4AF3
  0x004A49D2    39 77 fc                                         cmp     [edi-4], esi
  0x004A49D5    0f 85 18 01 00 00                                jnz     loc_4A4AF3    ; code_refs=[0x004A4AF3]

loc_4A49DB: ; preds=loc_4A49D2 succs=loc_4A49EA,loc_4A4A05
  0x004A49DB    8b 4c 24 14                                      mov     ecx, [esp+214h+var_200]
  0x004A49DF    e8 7c 71 fe ff                                   call    sub_48BB60    ; code_refs=[0x0048BB60]
  0x004A49E4    8b f0                                            mov     esi, eax
  0x004A49E6    85 f6                                            test    esi, esi
  0x004A49E8    74 1b                                            jz      short loc_4A4A05    ; code_refs=[0x004A4A05]

loc_4A49EA: ; preds=loc_4A49DB succs=loc_4A4A05
  0x004A49EA    56                                               push    esi; Stream
  0x004A49EB    68 40 2d 54 00                                   push    offset aStart; "**** Start: "    ; data_refs=[0x00542D40]
  0x004A49F0    ff 15 6c c3 53 00                                call    ds:fputs    ; code_refs=[0x0053C36C] data_refs=[0x0053C36C]
  0x004A49F6    56                                               push    esi; Stream
  0x004A49F7    ff d3                                            call    ebx ; fflush    ; code_refs=[0x0053C2EC]
  0x004A49F9    56                                               push    esi; Stream
  0x004A49FA    ff d5                                            call    ebp ; fclose    ; code_refs=[0x0053C410]
  0x004A49FC    83 c4 10                                         add     esp, 10h
  0x004A49FF    c7 07 01 00 00 00                                mov     dword ptr [edi], 1

loc_4A4A05: ; preds=loc_4A49DB,loc_4A49EA succs=loc_4A4A43,loc_4A4A61
  0x004A4A05    8d 44 24 20                                      lea     eax, [esp+214h+Time]
  0x004A4A09    50                                               push    eax; Time
  0x004A4A0A    ff 15 44 c4 53 00                                call    ds:_time64    ; code_refs=[0x0053C444] data_refs=[0x0053C444]
  0x004A4A10    8d 4c 24 24                                      lea     ecx, [esp+218h+Time]
  0x004A4A14    51                                               push    ecx; Time
  0x004A4A15    ff 15 40 c4 53 00                                call    ds:_localtime64    ; code_refs=[0x0053C440] data_refs=[0x0053C440]
  0x004A4A1B    50                                               push    eax; Tm
  0x004A4A1C    68 d8 18 54 00                                   push    offset aADBY; "%A, %d %B %Y"    ; data_refs=[0x005418D8]
  0x004A4A21    8d 94 24 b0 01 00 00                             lea     edx, [esp+224h+Buffer]
  0x004A4A28    6a 64                                            push    64h ; 'd'; SizeInBytes
  0x004A4A2A    52                                               push    edx; Buffer
  0x004A4A2B    ff 15 4c c4 53 00                                call    ds:strftime    ; code_refs=[0x0053C44C] data_refs=[0x0053C44C]
  0x004A4A31    8b 4c 24 2c                                      mov     ecx, [esp+22Ch+var_200]
  0x004A4A35    83 c4 18                                         add     esp, 18h
  0x004A4A38    e8 23 71 fe ff                                   call    sub_48BB60    ; code_refs=[0x0048BB60]
  0x004A4A3D    8b f0                                            mov     esi, eax
  0x004A4A3F    85 f6                                            test    esi, esi
  0x004A4A41    74 1e                                            jz      short loc_4A4A61    ; code_refs=[0x004A4A61]

loc_4A4A43: ; preds=loc_4A4A05 succs=loc_4A4A61
  0x004A4A43    8d 84 24 a0 01 00 00                             lea     eax, [esp+214h+Buffer]
  0x004A4A4A    56                                               push    esi; Stream
  0x004A4A4B    50                                               push    eax; Buffer
  0x004A4A4C    ff 15 6c c3 53 00                                call    ds:fputs    ; code_refs=[0x0053C36C] data_refs=[0x0053C36C]
  0x004A4A52    56                                               push    esi; Stream
  0x004A4A53    ff d3                                            call    ebx ; fflush    ; code_refs=[0x0053C2EC]
  0x004A4A55    56                                               push    esi; Stream
  0x004A4A56    ff d5                                            call    ebp ; fclose    ; code_refs=[0x0053C410]
  0x004A4A58    83 c4 10                                         add     esp, 10h
  0x004A4A5B    c7 07 01 00 00 00                                mov     dword ptr [edi], 1

loc_4A4A61: ; preds=loc_4A4A05,loc_4A4A43 succs=loc_4A4A70,loc_4A4A8B
  0x004A4A61    8b 4c 24 14                                      mov     ecx, [esp+214h+var_200]
  0x004A4A65    e8 f6 70 fe ff                                   call    sub_48BB60    ; code_refs=[0x0048BB60]
  0x004A4A6A    8b f0                                            mov     esi, eax
  0x004A4A6C    85 f6                                            test    esi, esi
  0x004A4A6E    74 1b                                            jz      short loc_4A4A8B    ; code_refs=[0x004A4A8B]

loc_4A4A70: ; preds=loc_4A4A61 succs=loc_4A4A8B
  0x004A4A70    56                                               push    esi; Stream
  0x004A4A71    68 40 17 54 00                                   push    offset word_541740; Buffer    ; data_refs=[0x00541740]
  0x004A4A76    ff 15 6c c3 53 00                                call    ds:fputs    ; code_refs=[0x0053C36C] data_refs=[0x0053C36C]
  0x004A4A7C    56                                               push    esi; Stream
  0x004A4A7D    ff d3                                            call    ebx ; fflush    ; code_refs=[0x0053C2EC]
  0x004A4A7F    56                                               push    esi; Stream
  0x004A4A80    ff d5                                            call    ebp ; fclose    ; code_refs=[0x0053C410]
  0x004A4A82    83 c4 10                                         add     esp, 10h
  0x004A4A85    c7 07 01 00 00 00                                mov     dword ptr [edi], 1

loc_4A4A8B: ; preds=loc_4A4A61,loc_4A4A70 succs=loc_4A4AAB,loc_4A4AC9
  0x004A4A8B    8d 8c 24 a0 01 00 00                             lea     ecx, [esp+214h+Buffer]
  0x004A4A92    51                                               push    ecx; Buffer
  0x004A4A93    ff 15 68 c3 53 00                                call    ds:_strtime    ; code_refs=[0x0053C368] data_refs=[0x0053C368]
  0x004A4A99    8b 4c 24 18                                      mov     ecx, [esp+218h+var_200]
  0x004A4A9D    83 c4 04                                         add     esp, 4
  0x004A4AA0    e8 bb 70 fe ff                                   call    sub_48BB60    ; code_refs=[0x0048BB60]
  0x004A4AA5    8b f0                                            mov     esi, eax
  0x004A4AA7    85 f6                                            test    esi, esi
  0x004A4AA9    74 1e                                            jz      short loc_4A4AC9    ; code_refs=[0x004A4AC9]

loc_4A4AAB: ; preds=loc_4A4A8B succs=loc_4A4AC9
  0x004A4AAB    8d 94 24 a0 01 00 00                             lea     edx, [esp+214h+Buffer]
  0x004A4AB2    56                                               push    esi; Stream
  0x004A4AB3    52                                               push    edx; Buffer
  0x004A4AB4    ff 15 6c c3 53 00                                call    ds:fputs    ; code_refs=[0x0053C36C] data_refs=[0x0053C36C]
  0x004A4ABA    56                                               push    esi; Stream
  0x004A4ABB    ff d3                                            call    ebx ; fflush    ; code_refs=[0x0053C2EC]
  0x004A4ABD    56                                               push    esi; Stream
  0x004A4ABE    ff d5                                            call    ebp ; fclose    ; code_refs=[0x0053C410]
  0x004A4AC0    83 c4 10                                         add     esp, 10h
  0x004A4AC3    c7 07 01 00 00 00                                mov     dword ptr [edi], 1

loc_4A4AC9: ; preds=loc_4A4A8B,loc_4A4AAB succs=loc_4A4AD8,loc_4A4AF3
  0x004A4AC9    8b 4c 24 14                                      mov     ecx, [esp+214h+var_200]
  0x004A4ACD    e8 8e 70 fe ff                                   call    sub_48BB60    ; code_refs=[0x0048BB60]
  0x004A4AD2    8b f0                                            mov     esi, eax
  0x004A4AD4    85 f6                                            test    esi, esi
  0x004A4AD6    74 1b                                            jz      short loc_4A4AF3    ; code_refs=[0x004A4AF3]

loc_4A4AD8: ; preds=loc_4A4AC9 succs=loc_4A4AF3
  0x004A4AD8    56                                               push    esi; Stream
  0x004A4AD9    68 00 db 53 00                                   push    offset word_53DB00; Buffer    ; data_refs=[0x0053DB00]
  0x004A4ADE    ff 15 6c c3 53 00                                call    ds:fputs    ; code_refs=[0x0053C36C] data_refs=[0x0053C36C]
  0x004A4AE4    56                                               push    esi; Stream
  0x004A4AE5    ff d3                                            call    ebx ; fflush    ; code_refs=[0x0053C2EC]
  0x004A4AE7    56                                               push    esi; Stream
  0x004A4AE8    ff d5                                            call    ebp ; fclose    ; code_refs=[0x0053C410]
  0x004A4AEA    83 c4 10                                         add     esp, 10h
  0x004A4AED    c7 07 01 00 00 00                                mov     dword ptr [edi], 1

loc_4A4AF3: ; preds=loc_4A49D2,loc_4A4AC9,loc_4A4AD8 succs=loc_4A49D0,loc_4A4B0B
  0x004A4AF3    8b 44 24 14                                      mov     eax, [esp+214h+var_200]
  0x004A4AF7    40                                               inc     eax
  0x004A4AF8    83 c7 40                                         add     edi, 40h ; '@'
  0x004A4AFB    89 44 24 14                                      mov     [esp+214h+var_200], eax
  0x004A4AFF    3b 05 00 e1 a4 04                                cmp     eax, dword_4A4E100    ; data_refs=[0x04A4E100]
  0x004A4B05    0f 8c c5 fe ff ff                                jl      loc_4A49D0    ; code_refs=[0x004A49D0]

loc_4A4B0B: ; preds=loc_4A4AF3 succs=loc_4A4B1D,loc_4A4BAB
  0x004A4B0B    6a 00                                            push    0; pvReserved
  0x004A4B0D    ff 15 9c c6 53 00                                call    ds:CoInitialize    ; code_refs=[0x0053C69C] data_refs=[0x0053C69C]
  0x004A4B13    8b f0                                            mov     esi, eax
  0x004A4B15    85 f6                                            test    esi, esi
  0x004A4B17    0f 89 8e 00 00 00                                jns     loc_4A4BAB    ; code_refs=[0x004A4BAB]

loc_4A4B1D: ; preds=loc_4A4B0B succs=loc_4A4B26,loc_4A4BAB
  0x004A4B1D    83 fe 01                                         cmp     esi, 1
  0x004A4B20    0f 84 85 00 00 00                                jz      loc_4A4BAB    ; code_refs=[0x004A4BAB]

loc_4A4B26: ; preds=loc_4A4B1D succs=loc_4A4B33,loc_4A4B52
  0x004A4B26    33 c9                                            xor     ecx, ecx
  0x004A4B28    e8 33 70 fe ff                                   call    sub_48BB60    ; code_refs=[0x0048BB60]
  0x004A4B2D    8b f8                                            mov     edi, eax
  0x004A4B2F    85 ff                                            test    edi, edi
  0x004A4B31    74 1f                                            jz      short loc_4A4B52    ; code_refs=[0x004A4B52]

loc_4A4B33: ; preds=loc_4A4B26 succs=loc_4A4B52
  0x004A4B33    57                                               push    edi; Stream
  0x004A4B34    68 10 2d 54 00                                   push    offset aErrorInitFirst; "ERROR: init_first2: CoInitialize error "...    ; data_refs=[0x00542D10]
  0x004A4B39    ff 15 6c c3 53 00                                call    ds:fputs    ; code_refs=[0x0053C36C] data_refs=[0x0053C36C]
  0x004A4B3F    57                                               push    edi; Stream
  0x004A4B40    ff d3                                            call    ebx ; fflush    ; code_refs=[0x0053C2EC]
  0x004A4B42    57                                               push    edi; Stream
  0x004A4B43    ff d5                                            call    ebp ; fclose    ; code_refs=[0x0053C410]
  0x004A4B45    83 c4 10                                         add     esp, 10h
  0x004A4B48    c7 05 f8 05 ac 04 01 00 00 00                    mov     dword_4AC05F8, 1    ; data_refs=[0x04AC05F8]

loc_4A4B52: ; preds=loc_4A4B26,loc_4A4B33 succs=loc_4A4B5F,loc_4A4B7F
  0x004A4B52    33 c9                                            xor     ecx, ecx
  0x004A4B54    e8 07 70 fe ff                                   call    sub_48BB60    ; code_refs=[0x0048BB60]
  0x004A4B59    8b f8                                            mov     edi, eax
  0x004A4B5B    85 ff                                            test    edi, edi
  0x004A4B5D    74 20                                            jz      short loc_4A4B7F    ; code_refs=[0x004A4B7F]

loc_4A4B5F: ; preds=loc_4A4B52 succs=loc_4A4B7F
  0x004A4B5F    56                                               push    esi
  0x004A4B60    68 d0 18 54 00                                   push    offset aD_0; "%d\n"    ; data_refs=[0x005418D0]
  0x004A4B65    57                                               push    edi; Stream
  0x004A4B66    ff 15 04 c4 53 00                                call    ds:fprintf    ; code_refs=[0x0053C404] data_refs=[0x0053C404]
  0x004A4B6C    57                                               push    edi; Stream
  0x004A4B6D    ff d3                                            call    ebx ; fflush    ; code_refs=[0x0053C2EC]
  0x004A4B6F    57                                               push    edi; Stream
  0x004A4B70    ff d5                                            call    ebp ; fclose    ; code_refs=[0x0053C410]
  0x004A4B72    83 c4 14                                         add     esp, 14h
  0x004A4B75    c7 05 f8 05 ac 04 01 00 00 00                    mov     dword_4AC05F8, 1    ; data_refs=[0x04AC05F8]

loc_4A4B7F: ; preds=loc_4A4B52,loc_4A4B5F succs=loc_4A4B8C,loc_4A4BAB
  0x004A4B7F    33 c9                                            xor     ecx, ecx
  0x004A4B81    e8 da 6f fe ff                                   call    sub_48BB60    ; code_refs=[0x0048BB60]
  0x004A4B86    8b f8                                            mov     edi, eax
  0x004A4B88    85 ff                                            test    edi, edi
  0x004A4B8A    74 1f                                            jz      short loc_4A4BAB    ; code_refs=[0x004A4BAB]

loc_4A4B8C: ; preds=loc_4A4B7F succs=loc_4A4BAB
  0x004A4B8C    57                                               push    edi; Stream
  0x004A4B8D    68 00 db 53 00                                   push    offset word_53DB00; Buffer    ; data_refs=[0x0053DB00]
  0x004A4B92    ff 15 6c c3 53 00                                call    ds:fputs    ; code_refs=[0x0053C36C] data_refs=[0x0053C36C]
  0x004A4B98    57                                               push    edi; Stream
  0x004A4B99    ff d3                                            call    ebx ; fflush    ; code_refs=[0x0053C2EC]
  0x004A4B9B    57                                               push    edi; Stream
  0x004A4B9C    ff d5                                            call    ebp ; fclose    ; code_refs=[0x0053C410]
  0x004A4B9E    83 c4 10                                         add     esp, 10h
  0x004A4BA1    c7 05 f8 05 ac 04 01 00 00 00                    mov     dword_4AC05F8, 1    ; data_refs=[0x04AC05F8]

loc_4A4BAB: ; preds=loc_4A4B0B,loc_4A4B1D,loc_4A4B7F,loc_4A4B8C succs=loc_4A4BD8,loc_4A4BF2
  0x004A4BAB    b9 04 2d 54 00                                   mov     ecx, offset aConfigCfg; "config.cfg"    ; data_refs=[0x00542D04]
  0x004A4BB0    e8 1b 35 fe ff                                   call    sub_4880D0    ; code_refs=[0x004880D0]
  0x004A4BB5    ba ec 35 b3 04                                   mov     edx, offset dword_4B335EC    ; data_refs=[0x04B335EC]
  0x004A4BBA    b9 fc 2c 54 00                                   mov     ecx, offset aLang; "LANG"    ; data_refs=[0x00542CFC]
  0x004A4BBF    c7 05 ec 35 b3 04 00 00 00 00                    mov     dword_4B335EC, 0    ; data_refs=[0x04B335EC]
  0x004A4BC9    e8 92 36 fe ff                                   call    sub_488260    ; code_refs=[0x00488260]
  0x004A4BCE    a1 ec 35 b3 04                                   mov     eax, dword_4B335EC    ; data_refs=[0x04B335EC]
  0x004A4BD3    83 f8 01                                         cmp     eax, 1
  0x004A4BD6    75 1a                                            jnz     short loc_4A4BF2    ; code_refs=[0x004A4BF2]

loc_4A4BD8: ; preds=loc_4A4BAB succs=loc_4A4C39
  0x004A4BD8    66 a1 f8 2c 54 00                                mov     ax, ds:word_542CF8    ; data_refs=[0x00542CF8]
  0x004A4BDE    8a 0d fa 2c 54 00                                mov     cl, ds:byte_542CFA    ; data_refs=[0x00542CFA]
  0x004A4BE4    66 a3 fc 09 ae 04                                mov     word_4AE09FC, ax    ; data_refs=[0x04AE09FC]
  0x004A4BEA    88 0d fe 09 ae 04                                mov     byte_4AE09FE, cl    ; data_refs=[0x04AE09FE]
  0x004A4BF0    eb 47                                            jmp     short loc_4A4C39    ; code_refs=[0x004A4C39]

loc_4A4BF2: ; preds=loc_4A4BAB succs=loc_4A4BF7,loc_4A4C11
  0x004A4BF2    83 f8 02                                         cmp     eax, 2
  0x004A4BF5    75 1a                                            jnz     short loc_4A4C11    ; code_refs=[0x004A4C11]

loc_4A4BF7: ; preds=loc_4A4BF2 succs=loc_4A4C39
  0x004A4BF7    66 8b 15 f4 2c 54 00                             mov     dx, ds:word_542CF4    ; data_refs=[0x00542CF4]
  0x004A4BFE    a0 f6 2c 54 00                                   mov     al, ds:byte_542CF6    ; data_refs=[0x00542CF6]
  0x004A4C03    66 89 15 fc 09 ae 04                             mov     word_4AE09FC, dx    ; data_refs=[0x04AE09FC]
  0x004A4C0A    a2 fe 09 ae 04                                   mov     byte_4AE09FE, al    ; data_refs=[0x04AE09FE]
  0x004A4C0F    eb 28                                            jmp     short loc_4A4C39    ; code_refs=[0x004A4C39]

loc_4A4C11: ; preds=loc_4A4BF2 succs=loc_4A4C16,loc_4A4C32
  0x004A4C11    83 f8 03                                         cmp     eax, 3
  0x004A4C14    75 1c                                            jnz     short loc_4A4C32    ; code_refs=[0x004A4C32]

loc_4A4C16: ; preds=loc_4A4C11 succs=loc_4A4C39
  0x004A4C16    66 8b 0d f0 2c 54 00                             mov     cx, ds:word_542CF0    ; data_refs=[0x00542CF0]
  0x004A4C1D    8a 15 f2 2c 54 00                                mov     dl, ds:byte_542CF2    ; data_refs=[0x00542CF2]
  0x004A4C23    66 89 0d fc 09 ae 04                             mov     word_4AE09FC, cx    ; data_refs=[0x04AE09FC]
  0x004A4C2A    88 15 fe 09 ae 04                                mov     byte_4AE09FE, dl    ; data_refs=[0x04AE09FE]
  0x004A4C30    eb 07                                            jmp     short loc_4A4C39    ; code_refs=[0x004A4C39]

loc_4A4C32: ; preds=loc_4A4C11 succs=loc_4A4C39
  0x004A4C32    c6 05 fc 09 ae 04 00                             mov     byte ptr word_4AE09FC, 0    ; data_refs=[0x04AE09FC]

loc_4A4C39: ; preds=loc_4A4BD8,loc_4A4BF7,loc_4A4C16,loc_4A4C32 succs=loc_4A4CE3,loc_4A4CFA
  0x004A4C39    ba 54 36 b3 04                                   mov     edx, offset dword_4B33654    ; data_refs=[0x04B33654]
  0x004A4C3E    b9 e8 2c 54 00                                   mov     ecx, offset aAutofog; "AUTOFOG"    ; data_refs=[0x00542CE8]
  0x004A4C43    e8 18 36 fe ff                                   call    sub_488260    ; code_refs=[0x00488260]
  0x004A4C48    ba c0 02 56 00                                   mov     edx, offset flt_5602C0    ; data_refs=[0x005602C0]
  0x004A4C4D    b9 e0 2c 54 00                                   mov     ecx, offset aFogdist; "FOGDIST"    ; data_refs=[0x00542CE0]
  0x004A4C52    e8 a9 37 fe ff                                   call    sub_488400    ; code_refs=[0x00488400]
  0x004A4C57    ba 7c 81 bb 04                                   mov     edx, offset dword_4BB817C    ; data_refs=[0x04BB817C]
  0x004A4C5C    b9 d4 2c 54 00                                   mov     ecx, offset aReflqual; "REFLQUAL"    ; data_refs=[0x00542CD4]
  0x004A4C61    c7 05 7c 81 bb 04 02 00 00 00                    mov     dword_4BB817C, 2    ; data_refs=[0x04BB817C]
  0x004A4C6B    e8 f0 35 fe ff                                   call    sub_488260    ; code_refs=[0x00488260]
  0x004A4C70    ba 58 36 b3 04                                   mov     edx, offset dword_4B33658    ; data_refs=[0x04B33658]
  0x004A4C75    b9 cc 2c 54 00                                   mov     ecx, offset aEffects; "EFFECTS"    ; data_refs=[0x00542CCC]
  0x004A4C7A    e8 e1 35 fe ff                                   call    sub_488260    ; code_refs=[0x00488260]
  0x004A4C7F    ba c8 02 56 00                                   mov     edx, offset dword_5602C8    ; data_refs=[0x005602C8]
  0x004A4C84    b9 c4 2c 54 00                                   mov     ecx, offset aLods; "LODS"    ; data_refs=[0x00542CC4]
  0x004A4C89    e8 d2 35 fe ff                                   call    sub_488260    ; code_refs=[0x00488260]
  0x004A4C8E    ba cc 02 56 00                                   mov     edx, offset dword_5602CC    ; data_refs=[0x005602CC]
  0x004A4C93    b9 b4 2c 54 00                                   mov     ecx, offset aHardwareCursor; "HARDWARE_CURSOR"    ; data_refs=[0x00542CB4]
  0x004A4C98    e8 c3 35 fe ff                                   call    sub_488260    ; code_refs=[0x00488260]
  0x004A4C9D    ba b4 10 56 00                                   mov     edx, offset dword_5610B4    ; data_refs=[0x005610B4]
  0x004A4CA2    b9 a0 2c 54 00                                   mov     ecx, offset aDescrAutoPopup; "DESCR_AUTO_POPUP"    ; data_refs=[0x00542CA0]
  0x004A4CA7    e8 b4 35 fe ff                                   call    sub_488260    ; code_refs=[0x00488260]
  0x004A4CAC    ba b8 10 56 00                                   mov     edx, offset dword_5610B8    ; data_refs=[0x005610B8]
  0x004A4CB1    b9 90 2c 54 00                                   mov     ecx, offset aInviteMessages; "INVITE_MESSAGES"    ; data_refs=[0x00542C90]
  0x004A4CB6    e8 a5 35 fe ff                                   call    sub_488260    ; code_refs=[0x00488260]
  0x004A4CBB    8b 0d 58 36 b3 04                                mov     ecx, dword_4B33658    ; data_refs=[0x04B33658]
  0x004A4CC1    e8 3a 13 fc ff                                   call    sub_466000    ; code_refs=[0x00466000]
  0x004A4CC6    e8 65 9d fc ff                                   call    sub_46EA30    ; code_refs=[0x0046EA30]
  0x004A4CCB    33 d2                                            xor     edx, edx
  0x004A4CCD    b9 60 1a 54 00                                   mov     ecx, offset aLoadcountBin; "loadcount.bin"    ; data_refs=[0x00541A60]
  0x004A4CD2    e8 69 9d fc ff                                   call    sub_46EA40    ; code_refs=[0x0046EA40]
  0x004A4CD7    8b f8                                            mov     edi, eax
  0x004A4CD9    e8 42 9d fc ff                                   call    sub_46EA20    ; code_refs=[0x0046EA20]
  0x004A4CDE    83 ff ff                                         cmp     edi, 0FFFFFFFFh
  0x004A4CE1    74 17                                            jz      short loc_4A4CFA    ; code_refs=[0x004A4CFA]

loc_4A4CE3: ; preds=loc_4A4C39 succs=loc_4A4D04
  0x004A4CE3    6a 04                                            push    4; MaxCharCount
  0x004A4CE5    ba f8 70 ae 04                                   mov     edx, offset dword_4AE70F8; DstBuf    ; data_refs=[0x04AE70F8]
  0x004A4CEA    8b cf                                            mov     ecx, edi; FileHandle
  0x004A4CEC    e8 7f a0 fc ff                                   call    sub_46ED70    ; code_refs=[0x0046ED70]
  0x004A4CF1    8b cf                                            mov     ecx, edi; FileHandle
  0x004A4CF3    e8 d8 a2 fc ff                                   call    sub_46EFD0    ; code_refs=[0x0046EFD0]
  0x004A4CF8    eb 0a                                            jmp     short loc_4A4D04    ; code_refs=[0x004A4D04]

loc_4A4CFA: ; preds=loc_4A4C39 succs=loc_4A4D04
  0x004A4CFA    c7 05 f8 70 ae 04 98 3a 00 00                    mov     dword_4AE70F8, 3A98h    ; data_refs=[0x04AE70F8]

loc_4A4D04: ; preds=loc_4A4CE3,loc_4A4CFA succs=loc_4A4D20
  0x004A4D04    ff 15 08 c0 53 00                                call    ds:InitCommonControls    ; code_refs=[0x0053C008] data_refs=[0x0053C008]
  0x004A4D0A    e8 c1 5f ff ff                                   call    sub_49ACD0    ; code_refs=[0x0049ACD0]
  0x004A4D0F    e8 7c d6 ff ff                                   call    sub_4A2390    ; code_refs=[0x004A2390]
  0x004A4D14    33 db                                            xor     ebx, ebx
  0x004A4D16    33 c0                                            xor     eax, eax
  0x004A4D18    eb 06                                            jmp     short loc_4A4D20    ; code_refs=[0x004A4D20]

loc_4A4D20: ; preds=loc_4A4D04,loc_4A4D20 succs=loc_4A4D2E,loc_4A4D20
  0x004A4D20    88 80 10 82 b2 04                                mov     byte_4B28210[eax], al    ; data_refs=[0x04B28210]
  0x004A4D26    40                                               inc     eax
  0x004A4D27    3d 00 01 00 00                                   cmp     eax, 100h
  0x004A4D2C    7c f2                                            jl      short loc_4A4D20    ; code_refs=[0x004A4D20]

loc_4A4D2E: ; preds=loc_4A4D20 succs=loc_4A4D30
  0x004A4D2E    33 c0                                            xor     eax, eax

loc_4A4D30: ; preds=loc_4A4D2E,loc_4A4D30 succs=loc_4A4D49,loc_4A4D30
  0x004A4D30    0f be 88 f0 02 56 00                             movsx   ecx, byte_5602F0[eax]    ; data_refs=[0x005602F0]
  0x004A4D37    8a 90 d4 02 56 00                                mov     dl, byte_5602D4[eax]    ; data_refs=[0x005602D4]
  0x004A4D3D    40                                               inc     eax
  0x004A4D3E    88 91 10 82 b2 04                                mov     byte_4B28210[ecx], dl    ; data_refs=[0x04B28210]
  0x004A4D44    83 f8 1a                                         cmp     eax, 1Ah
  0x004A4D47    7c e7                                            jl      short loc_4A4D30    ; code_refs=[0x004A4D30]

loc_4A4D49: ; preds=loc_4A4D30 succs=loc_4A4D66,loc_4A4D70
  0x004A4D49    68 84 2c 54 00                                   push    offset Name; "SphereDebug"    ; data_refs=[0x00542C84]
  0x004A4D4E    68 e8 03 00 00                                   push    3E8h; dwMaximumSizeLow
  0x004A4D53    53                                               push    ebx; dwMaximumSizeHigh
  0x004A4D54    6a 04                                            push    4; flProtect
  0x004A4D56    53                                               push    ebx; lpFileMappingAttributes
  0x004A4D57    6a ff                                            push    0FFFFFFFFh; hFile
  0x004A4D59    ff 15 fc c0 53 00                                call    ds:CreateFileMappingA    ; code_refs=[0x0053C0FC] data_refs=[0x0053C0FC]
  0x004A4D5F    8b f8                                            mov     edi, eax
  0x004A4D61    83 ff ff                                         cmp     edi, 0FFFFFFFFh
  0x004A4D64    75 0a                                            jnz     short loc_4A4D70    ; code_refs=[0x004A4D70]

loc_4A4D66: ; preds=loc_4A4D49 succs=
  0x004A4D66    b9 d0 1f 54 00                                   mov     ecx, offset aCreatefilemapp; "CreateFileMapping failed"    ; data_refs=[0x00541FD0]
  0x004A4D6B    e8 c0 4a ff ff                                   call    sub_499830    ; code_refs=[0x00499830]

loc_4A4D70: ; preds=loc_4A4D49 succs=loc_4A4D95,loc_4A4D9F
  0x004A4D70    68 e8 03 00 00                                   push    3E8h; dwNumberOfBytesToMap
  0x004A4D75    53                                               push    ebx; dwFileOffsetLow
  0x004A4D76    53                                               push    ebx; dwFileOffsetHigh
  0x004A4D77    6a 02                                            push    2; dwDesiredAccess
  0x004A4D79    57                                               push    edi; hFileMappingObject
  0x004A4D7A    ff 15 f8 c0 53 00                                call    ds:MapViewOfFile    ; code_refs=[0x0053C0F8] data_refs=[0x0053C0F8]
  0x004A4D80    57                                               push    edi; hObject
  0x004A4D81    a3 dc 3e a4 04                                   mov     lpBaseAddress, eax    ; data_refs=[0x04A43EDC]
  0x004A4D86    ff 15 88 c0 53 00                                call    ds:CloseHandle    ; code_refs=[0x0053C088] data_refs=[0x0053C088]
  0x004A4D8C    a1 dc 3e a4 04                                   mov     eax, lpBaseAddress    ; data_refs=[0x04A43EDC]
  0x004A4D91    3b c3                                            cmp     eax, ebx
  0x004A4D93    75 0a                                            jnz     short loc_4A4D9F    ; code_refs=[0x004A4D9F]

loc_4A4D95: ; preds=loc_4A4D70 succs=
  0x004A4D95    b9 6c 2c 54 00                                   mov     ecx, offset aMapviewoffileF_0; "MapViewOfFile failed"    ; data_refs=[0x00542C6C]
  0x004A4D9A    e8 91 4a ff ff                                   call    sub_499830    ; code_refs=[0x00499830]

loc_4A4D9F: ; preds=loc_4A4D70 succs=loc_4A4DA8,loc_4A4DC4
  0x004A4D9F    80 b8 e7 03 00 00 02                             cmp     byte ptr [eax+3E7h], 2
  0x004A4DA6    75 1c                                            jnz     short loc_4A4DC4    ; code_refs=[0x004A4DC4]

loc_4A4DA8: ; preds=loc_4A4D9F succs=loc_4A4DC0
  0x004A4DA8    c6 80 e7 03 00 00 01                             mov     byte ptr [eax+3E7h], 1
  0x004A4DAF    a1 dc 3e a4 04                                   mov     eax, lpBaseAddress    ; data_refs=[0x04A43EDC]
  0x004A4DB4    8a 80 e7 03 00 00                                mov     al, [eax+3E7h]
  0x004A4DBA    8d 9b 00 00 00 00                                lea     ebx, [ebx+0]

loc_4A4DC0: ; preds=loc_4A4DA8,loc_4A4DC0 succs=loc_4A4DC4,loc_4A4DC0
  0x004A4DC0    3c 01                                            cmp     al, 1
  0x004A4DC2    74 fc                                            jz      short loc_4A4DC0    ; code_refs=[0x004A4DC0]

loc_4A4DC4: ; preds=loc_4A4D9F,loc_4A4DC0 succs=loc_4A4DFD,loc_4A4E33
  0x004A4DC4    68 64 2c 54 00                                   push    offset aSpider; "Spider"    ; data_refs=[0x00542C64]
  0x004A4DC9    68 54 2c 54 00                                   push    offset aSpiderwclname; "SpiderWclName"    ; data_refs=[0x00542C54]
  0x004A4DCE    ff 15 d0 c5 53 00                                call    ds:FindWindowA    ; code_refs=[0x0053C5D0] data_refs=[0x0053C5D0]
  0x004A4DD4    a3 e0 de a4 04                                   mov     dword_4A4DEE0, eax    ; data_refs=[0x04A4DEE0]
  0x004A4DD9    c7 44 24 34 01 00 00 00                          mov     [esp+214h+var_1E0], 1
  0x004A4DE1    c7 05 74 fd a6 04 80 02 00 00                    mov     nWidth, 280h    ; data_refs=[0x04A6FD74]
  0x004A4DEB    c7 05 cc 79 ae 04 e0 01 00 00                    mov     nHeight, 1E0h    ; data_refs=[0x04AE79CC]
  0x004A4DF5    39 1d 28 36 b3 04                                cmp     dword_4B33628, ebx    ; data_refs=[0x04B33628]
  0x004A4DFB    74 36                                            jz      short loc_4A4E33    ; code_refs=[0x004A4E33]

loc_4A4DFD: ; preds=loc_4A4DC4 succs=loc_4A4E33
  0x004A4DFD    b9 a4 22 54 00                                   mov     ecx, offset aDebugCfg; "debug.cfg"    ; data_refs=[0x005422A4]
  0x004A4E02    e8 c9 32 fe ff                                   call    sub_4880D0    ; code_refs=[0x004880D0]
  0x004A4E07    8d 54 24 34                                      lea     edx, [esp+214h+var_1E0]
  0x004A4E0B    b9 48 2c 54 00                                   mov     ecx, offset aShowvideo; "SHOWVIDEO"    ; data_refs=[0x00542C48]
  0x004A4E10    e8 4b 34 fe ff                                   call    sub_488260    ; code_refs=[0x00488260]
  0x004A4E15    ba 40 36 b3 04                                   mov     edx, offset dword_4B33640    ; data_refs=[0x04B33640]
  0x004A4E1A    b9 40 2c 54 00                                   mov     ecx, offset aRefresh; "REFRESH"    ; data_refs=[0x00542C40]
  0x004A4E1F    e8 3c 34 fe ff                                   call    sub_488260    ; code_refs=[0x00488260]
  0x004A4E24    ba 18 c4 a8 04                                   mov     edx, offset dword_4A8C418    ; data_refs=[0x04A8C418]
  0x004A4E29    b9 28 2c 54 00                                   mov     ecx, offset aMemoryWarningA; "MEMORY_WARNING_AS_ERROR"    ; data_refs=[0x00542C28]
  0x004A4E2E    e8 2d 34 fe ff                                   call    sub_488260    ; code_refs=[0x00488260]

loc_4A4E33: ; preds=loc_4A4DC4,loc_4A4DFD succs=loc_4A4EF1,loc_4A4EFD
  0x004A4E33    b9 04 2d 54 00                                   mov     ecx, offset aConfigCfg; "config.cfg"    ; data_refs=[0x00542D04]
  0x004A4E38    e8 93 32 fe ff                                   call    sub_4880D0    ; code_refs=[0x004880D0]
  0x004A4E3D    ba d8 79 ae 04                                   mov     edx, offset dword_4AE79D8    ; data_refs=[0x04AE79D8]
  0x004A4E42    b9 1c 2c 54 00                                   mov     ecx, offset aWindowed; "WINDOWED"    ; data_refs=[0x00542C1C]
  0x004A4E47    89 1d d8 79 ae 04                                mov     dword_4AE79D8, ebx    ; data_refs=[0x04AE79D8]
  0x004A4E4D    e8 0e 34 fe ff                                   call    sub_488260    ; code_refs=[0x00488260]
  0x004A4E52    8b 3d 2c c5 53 00                                mov     edi, ds:GetSystemMetrics    ; data_refs=[0x0053C52C]
  0x004A4E58    53                                               push    ebx; nIndex
  0x004A4E59    ff d7                                            call    edi ; GetSystemMetrics    ; code_refs=[0x0053C52C]
  0x004A4E5B    6a 01                                            push    1; nIndex
  0x004A4E5D    a3 74 fd a6 04                                   mov     nWidth, eax    ; data_refs=[0x04A6FD74]
  0x004A4E62    ff d7                                            call    edi ; GetSystemMetrics    ; code_refs=[0x0053C52C]
  0x004A4E64    ba 74 fd a6 04                                   mov     edx, offset nWidth    ; data_refs=[0x04A6FD74]
  0x004A4E69    b9 14 2c 54 00                                   mov     ecx, offset aXres; "XRES"    ; data_refs=[0x00542C14]
  0x004A4E6E    a3 cc 79 ae 04                                   mov     nHeight, eax    ; data_refs=[0x04AE79CC]
  0x004A4E73    c7 05 c4 01 56 00 10 00 00 00                    mov     dword_5601C4, 10h    ; data_refs=[0x005601C4]
  0x004A4E7D    e8 de 33 fe ff                                   call    sub_488260    ; code_refs=[0x00488260]
  0x004A4E82    ba cc 79 ae 04                                   mov     edx, offset nHeight    ; data_refs=[0x04AE79CC]
  0x004A4E87    b9 0c 2c 54 00                                   mov     ecx, offset aYres; "YRES"    ; data_refs=[0x00542C0C]
  0x004A4E8C    e8 cf 33 fe ff                                   call    sub_488260    ; code_refs=[0x00488260]
  0x004A4E91    ba c4 01 56 00                                   mov     edx, offset dword_5601C4    ; data_refs=[0x005601C4]
  0x004A4E96    b9 04 2c 54 00                                   mov     ecx, offset aDepth; "DEPTH"    ; data_refs=[0x00542C04]
  0x004A4E9B    e8 c0 33 fe ff                                   call    sub_488260    ; code_refs=[0x00488260]
  0x004A4EA0    ba 4c 63 a4 04                                   mov     edx, offset dword_4A4634C    ; data_refs=[0x04A4634C]
  0x004A4EA5    b9 fc 2b 54 00                                   mov     ecx, offset aGrass; "GRASS"    ; data_refs=[0x00542BFC]
  0x004A4EAA    e8 b1 33 fe ff                                   call    sub_488260    ; code_refs=[0x00488260]
  0x004A4EAF    ba 80 76 ae 04                                   mov     edx, offset flt_4AE7680    ; data_refs=[0x04AE7680]
  0x004A4EB4    b9 ec 2b 54 00                                   mov     ecx, offset aLodDistance; "LOD_DISTANCE"    ; data_refs=[0x00542BEC]
  0x004A4EB9    e8 42 35 fe ff                                   call    sub_488400    ; code_refs=[0x00488400]
  0x004A4EBE    ba 84 76 ae 04                                   mov     edx, offset flt_4AE7684    ; data_refs=[0x04AE7684]
  0x004A4EC3    b9 dc 2b 54 00                                   mov     ecx, offset aMinLodDist; "MIN_LOD_DIST"    ; data_refs=[0x00542BDC]
  0x004A4EC8    e8 33 35 fe ff                                   call    sub_488400    ; code_refs=[0x00488400]
  0x004A4ECD    ba 2c 02 56 00                                   mov     edx, offset dword_56022C    ; data_refs=[0x0056022C]
  0x004A4ED2    b9 d0 2b 54 00                                   mov     ecx, offset aPosteffects; "POSTEFFECTS"    ; data_refs=[0x00542BD0]
  0x004A4ED7    e8 84 33 fe ff                                   call    sub_488260    ; code_refs=[0x00488260]
  0x004A4EDC    d9 05 80 76 ae 04                                fld     flt_4AE7680    ; data_refs=[0x04AE7680]
  0x004A4EE2    d9 ee                                            fldz
  0x004A4EE4    d9 c0                                            fld     st
  0x004A4EE6    dd ea                                            fucomp  st(2)
  0x004A4EE8    df e0                                            fnstsw  ax
  0x004A4EEA    dd d9                                            fstp    st(1)
  0x004A4EEC    f6 c4 44                                         test    ah, 44h
  0x004A4EEF    7a 0c                                            jp      short loc_4A4EFD    ; code_refs=[0x004A4EFD]

loc_4A4EF1: ; preds=loc_4A4E33 succs=loc_4A4EFD
  0x004A4EF1    d9 05 cc 2b 54 00                                fld     ds:flt_542BCC    ; data_refs=[0x00542BCC]
  0x004A4EF7    d9 1d 80 76 ae 04                                fstp    flt_4AE7680    ; data_refs=[0x04AE7680]

loc_4A4EFD: ; preds=loc_4A4E33,loc_4A4EF1 succs=loc_4A4F0C,loc_4A4F18
  0x004A4EFD    d9 05 84 76 ae 04                                fld     flt_4AE7684    ; data_refs=[0x04AE7684]
  0x004A4F03    da e9                                            fucompp
  0x004A4F05    df e0                                            fnstsw  ax
  0x004A4F07    f6 c4 44                                         test    ah, 44h
  0x004A4F0A    7a 0c                                            jp      short loc_4A4F18    ; code_refs=[0x004A4F18]

loc_4A4F0C: ; preds=loc_4A4EFD succs=loc_4A4F18
  0x004A4F0C    d9 05 5c 1a 54 00                                fld     ds:flt_541A5C    ; data_refs=[0x00541A5C]
  0x004A4F12    d9 1d 84 76 ae 04                                fstp    flt_4AE7684    ; data_refs=[0x04AE7684]

loc_4A4F18: ; preds=loc_4A4EFD,loc_4A4F0C succs=loc_4A4F42,loc_4A508E
  0x004A4F18    8b 35 3c c4 53 00                                mov     esi, ds:_findfirst64i32    ; data_refs=[0x0053C43C]
  0x004A4F1E    8d 4c 24 38                                      lea     ecx, [esp+214h+FindData]
  0x004A4F22    51                                               push    ecx; FindData
  0x004A4F23    68 bc 2b 54 00                                   push    offset aLandscapeHr; "landscape_hr"    ; data_refs=[0x00542BBC]
  0x004A4F28    ff d6                                            call    esi ; _findfirst64i32    ; code_refs=[0x0053C43C]
  0x004A4F2A    8b 2d 20 c4 53 00                                mov     ebp, ds:_errno    ; data_refs=[0x0053C420]
  0x004A4F30    8b 3d 34 c4 53 00                                mov     edi, ds:_findclose    ; data_refs=[0x0053C434]
  0x004A4F36    83 c4 08                                         add     esp, 8
  0x004A4F39    83 f8 ff                                         cmp     eax, 0FFFFFFFFh
  0x004A4F3C    0f 85 4c 01 00 00                                jnz     loc_4A508E    ; code_refs=[0x004A508E]

loc_4A4F42: ; preds=loc_4A4F18 succs=loc_4A4F44
  0x004A4F42    ff d5                                            call    ebp ; _errno    ; code_refs=[0x0053C420]

loc_4A4F44: ; preds=loc_4A4F42,loc_4A50B0 succs=loc_4A4F4A
  0x004A4F44    89 1d 34 36 b3 04                                mov     dword_4B33634, ebx    ; data_refs=[0x04B33634]

loc_4A4F4A: ; preds=loc_4A4F44,loc_4A5096 succs=loc_4A4F62,loc_4A50BA
  0x004A4F4A    8d 54 24 38                                      lea     edx, [esp+214h+FindData]
  0x004A4F4E    52                                               push    edx; FindData
  0x004A4F4F    68 ac 2b 54 00                                   push    offset aLandscapePh; "landscape_ph"    ; data_refs=[0x00542BAC]
  0x004A4F54    ff d6                                            call    esi ; _findfirst64i32    ; code_refs=[0x0053C43C]
  0x004A4F56    83 c4 08                                         add     esp, 8
  0x004A4F59    83 f8 ff                                         cmp     eax, 0FFFFFFFFh
  0x004A4F5C    0f 85 58 01 00 00                                jnz     loc_4A50BA    ; code_refs=[0x004A50BA]

loc_4A4F62: ; preds=loc_4A4F4A succs=loc_4A4F64
  0x004A4F62    ff d5                                            call    ebp ; _errno    ; code_refs=[0x0053C420]

loc_4A4F64: ; preds=loc_4A4F62,loc_4A50D6 succs=loc_4A4F6A
  0x004A4F64    89 1d 38 36 b3 04                                mov     dword_4B33638, ebx    ; data_refs=[0x04B33638]

loc_4A4F6A: ; preds=loc_4A4F64,loc_4A50C2 succs=loc_4A4F82,loc_4A50E0
  0x004A4F6A    8d 44 24 38                                      lea     eax, [esp+214h+FindData]
  0x004A4F6E    50                                               push    eax; FindData
  0x004A4F6F    68 9c 2b 54 00                                   push    offset aLandscapeRd; "landscape_rd"    ; data_refs=[0x00542B9C]
  0x004A4F74    ff d6                                            call    esi ; _findfirst64i32    ; code_refs=[0x0053C43C]
  0x004A4F76    83 c4 08                                         add     esp, 8
  0x004A4F79    83 f8 ff                                         cmp     eax, 0FFFFFFFFh
  0x004A4F7C    0f 85 5e 01 00 00                                jnz     loc_4A50E0    ; code_refs=[0x004A50E0]

loc_4A4F82: ; preds=loc_4A4F6A succs=loc_4A4F84
  0x004A4F82    ff d5                                            call    ebp ; _errno    ; code_refs=[0x0053C420]

loc_4A4F84: ; preds=loc_4A4F82,loc_4A50FD succs=loc_4A4F8F
  0x004A4F84    89 1d 3c 36 b3 04                                mov     dword_4B3363C, ebx    ; data_refs=[0x04B3363C]
  0x004A4F8A    bd 01 00 00 00                                   mov     ebp, 1

loc_4A4F8F: ; preds=loc_4A4F84,loc_4A50E8 succs=loc_4A4FA2,loc_4A4FB9
  0x004A4F8F    ba a8 f1 ab 04                                   mov     edx, offset dword_4ABF1A8    ; data_refs=[0x04ABF1A8]
  0x004A4F94    b9 90 2b 54 00                                   mov     ecx, offset aVertsync; "VERTSYNC"    ; data_refs=[0x00542B90]
  0x004A4F99    e8 c2 32 fe ff                                   call    sub_488260    ; code_refs=[0x00488260]
  0x004A4F9E    3b c3                                            cmp     eax, ebx
  0x004A4FA0    74 17                                            jz      short loc_4A4FB9    ; code_refs=[0x004A4FB9]

loc_4A4FA2: ; preds=loc_4A4F8F succs=loc_4A4FB9
  0x004A4FA2    8b d5                                            mov     edx, ebp
  0x004A4FA4    b9 90 2b 54 00                                   mov     ecx, offset aVertsync; "VERTSYNC"    ; data_refs=[0x00542B90]
  0x004A4FA9    89 2d a8 f1 ab 04                                mov     dword_4ABF1A8, ebp    ; data_refs=[0x04ABF1A8]
  0x004A4FAF    e8 8c 37 fe ff                                   call    sub_488740    ; code_refs=[0x00488740]
  0x004A4FB4    e8 f7 31 fe ff                                   call    sub_4881B0    ; code_refs=[0x004881B0]

loc_4A4FB9: ; preds=loc_4A4F8F,loc_4A4FA2 succs=loc_4A4FD0,loc_4A4FDA
  0x004A4FB9    e8 a2 4b ff ff                                   call    sub_499B60    ; code_refs=[0x00499B60]
  0x004A4FBE    b9 84 2b 54 00                                   mov     ecx, offset aLandscape; "landscape"    ; data_refs=[0x00542B84]
  0x004A4FC3    e8 58 a1 fc ff                                   call    sub_46F120    ; code_refs=[0x0046F120]
  0x004A4FC8    39 1d 34 36 b3 04                                cmp     dword_4B33634, ebx    ; data_refs=[0x04B33634]
  0x004A4FCE    74 0a                                            jz      short loc_4A4FDA    ; code_refs=[0x004A4FDA]

loc_4A4FD0: ; preds=loc_4A4FB9 succs=loc_4A4FDA
  0x004A4FD0    b9 bc 2b 54 00                                   mov     ecx, offset aLandscapeHr; "landscape_hr"    ; data_refs=[0x00542BBC]
  0x004A4FD5    e8 46 a1 fc ff                                   call    sub_46F120    ; code_refs=[0x0046F120]

loc_4A4FDA: ; preds=loc_4A4FB9,loc_4A4FD0 succs=loc_4A4FE2,loc_4A4FEC
  0x004A4FDA    39 1d 38 36 b3 04                                cmp     dword_4B33638, ebx    ; data_refs=[0x04B33638]
  0x004A4FE0    74 0a                                            jz      short loc_4A4FEC    ; code_refs=[0x004A4FEC]

loc_4A4FE2: ; preds=loc_4A4FDA succs=loc_4A4FEC
  0x004A4FE2    b9 ac 2b 54 00                                   mov     ecx, offset aLandscapePh; "landscape_ph"    ; data_refs=[0x00542BAC]
  0x004A4FE7    e8 34 a1 fc ff                                   call    sub_46F120    ; code_refs=[0x0046F120]

loc_4A4FEC: ; preds=loc_4A4FDA,loc_4A4FE2 succs=loc_4A4FF4,loc_4A4FFE
  0x004A4FEC    39 1d 3c 36 b3 04                                cmp     dword_4B3363C, ebx    ; data_refs=[0x04B3363C]
  0x004A4FF2    74 0a                                            jz      short loc_4A4FFE    ; code_refs=[0x004A4FFE]

loc_4A4FF4: ; preds=loc_4A4FEC succs=loc_4A4FFE
  0x004A4FF4    b9 9c 2b 54 00                                   mov     ecx, offset aLandscapeRd; "landscape_rd"    ; data_refs=[0x00542B9C]
  0x004A4FF9    e8 22 a1 fc ff                                   call    sub_46F120    ; code_refs=[0x0046F120]

loc_4A4FFE: ; preds=loc_4A4FEC,loc_4A4FF4 succs=loc_4A5017,loc_4A501D
  0x004A4FFE    e8 6d 57 ff ff                                   call    sub_49A770    ; code_refs=[0x0049A770]
  0x004A5003    e8 88 d7 ff ff                                   call    sub_4A2790    ; code_refs=[0x004A2790]
  0x004A5008    8b 0d f0 b2 bb 04                                mov     ecx, dword_4BBB2F0    ; data_refs=[0x04BBB2F0]
  0x004A500E    e8 cd 2f 07 00                                   call    sub_517FE0    ; code_refs=[0x00517FE0]
  0x004A5013    84 c0                                            test    al, al
  0x004A5015    75 06                                            jnz     short loc_4A501D    ; code_refs=[0x004A501D]

loc_4A5017: ; preds=loc_4A4FFE succs=loc_4A501D
  0x004A5017    89 1d 2c 02 56 00                                mov     dword_56022C, ebx    ; data_refs=[0x0056022C]

loc_4A501D: ; preds=loc_4A4FFE,loc_4A5017 succs=loc_4A5026,loc_4A5053
  0x004A501D    f6 05 8c ed a2 04 01                             test    byte ptr dword_4A2ED8C, 1    ; data_refs=[0x04A2ED8C]
  0x004A5024    75 2d                                            jnz     short loc_4A5053    ; code_refs=[0x004A5053]

loc_4A5026: ; preds=loc_4A501D succs=loc_4A5053
  0x004A5026    09 2d 8c ed a2 04                                or      dword_4A2ED8C, ebp    ; data_refs=[0x04A2ED8C]
  0x004A502C    b9 80 ed a2 04                                   mov     ecx, offset unk_4A2ED80    ; data_refs=[0x04A2ED80]
  0x004A5031    c6 84 24 10 02 00 00 01                          mov     byte ptr [esp+214h+var_4], 1
  0x004A5039    e8 32 26 07 00                                   call    sub_517670    ; code_refs=[0x00517670]
  0x004A503E    68 30 a0 53 00                                   push    offset sub_53A030; void (__cdecl *)()    ; data_refs=[0x0053A030]
  0x004A5043    e8 08 95 08 00                                   call    _atexit    ; code_refs=[0x0052E550]
  0x004A5048    83 c4 04                                         add     esp, 4
  0x004A504B    c6 84 24 10 02 00 00 00                          mov     byte ptr [esp+214h+var_4], 0

loc_4A5053: ; preds=loc_4A501D,loc_4A5026 succs=loc_4A5109
  0x004A5053    33 c9                                            xor     ecx, ecx
  0x004A5055    39 1d cc 02 56 00                                cmp     dword_5602CC, ebx    ; data_refs=[0x005602CC]
  0x004A505B    0f 95 c1                                         setnz   cl
  0x004A505E    51                                               push    ecx
  0x004A505F    b9 80 ed a2 04                                   mov     ecx, offset unk_4A2ED80    ; data_refs=[0x04A2ED80]
  0x004A5064    e8 07 27 07 00                                   call    sub_517770    ; code_refs=[0x00517770]
  0x004A5069    8b 15 cc 79 ae 04                                mov     edx, nHeight    ; data_refs=[0x04AE79CC]
  0x004A506F    a1 74 fd a6 04                                   mov     eax, nWidth    ; data_refs=[0x04A6FD74]
  0x004A5074    53                                               push    ebx
  0x004A5075    53                                               push    ebx
  0x004A5076    4a                                               dec     edx
  0x004A5077    52                                               push    edx
  0x004A5078    48                                               dec     eax
  0x004A5079    50                                               push    eax
  0x004A507A    33 d2                                            xor     edx, edx
  0x004A507C    33 c9                                            xor     ecx, ecx
  0x004A507E    e8 1d 03 ff ff                                   call    sub_4953A0    ; code_refs=[0x004953A0]
  0x004A5083    d9 e8                                            fld1
  0x004A5085    d9 ee                                            fldz
  0x004A5087    b8 b8 1d b4 04                                   mov     eax, offset flt_4B41DB8    ; data_refs=[0x04B41DB8]
  0x004A508C    eb 7b                                            jmp     short loc_4A5109    ; code_refs=[0x004A5109]

loc_4A508E: ; preds=loc_4A4F18 succs=loc_4A5096,loc_4A50B0
  0x004A508E    f6 44 24 38 10                                   test    byte ptr [esp+214h+FindData.attrib], 10h    ; data_refs=[0x000426F9]
  0x004A5093    50                                               push    eax; FindHandle
  0x004A5094    74 1a                                            jz      short loc_4A50B0    ; code_refs=[0x004A50B0]

loc_4A5096: ; preds=loc_4A508E succs=loc_4A4F4A
  0x004A5096    8b 3d 34 c4 53 00                                mov     edi, ds:_findclose    ; data_refs=[0x0053C434]
  0x004A509C    ff d7                                            call    edi ; _findclose    ; code_refs=[0x0053C434]
  0x004A509E    83 c4 04                                         add     esp, 4
  0x004A50A1    c7 05 34 36 b3 04 01 00 00 00                    mov     dword_4B33634, 1    ; data_refs=[0x04B33634]
  0x004A50AB    e9 9a fe ff ff                                   jmp     loc_4A4F4A    ; code_refs=[0x004A4F4A]

loc_4A50B0: ; preds=loc_4A508E succs=loc_4A4F44
  0x004A50B0    ff d7                                            call    edi ; _findclose    ; code_refs=[0x0053C434]
  0x004A50B2    83 c4 04                                         add     esp, 4
  0x004A50B5    e9 8a fe ff ff                                   jmp     loc_4A4F44    ; code_refs=[0x004A4F44]

loc_4A50BA: ; preds=loc_4A4F4A succs=loc_4A50C2,loc_4A50D6
  0x004A50BA    f6 44 24 38 10                                   test    byte ptr [esp+214h+FindData.attrib], 10h    ; data_refs=[0x000426F9]
  0x004A50BF    50                                               push    eax; FindHandle
  0x004A50C0    74 14                                            jz      short loc_4A50D6    ; code_refs=[0x004A50D6]

loc_4A50C2: ; preds=loc_4A50BA succs=loc_4A4F6A
  0x004A50C2    ff d7                                            call    edi ; _findclose    ; code_refs=[0x0053C434]
  0x004A50C4    83 c4 04                                         add     esp, 4
  0x004A50C7    c7 05 38 36 b3 04 01 00 00 00                    mov     dword_4B33638, 1    ; data_refs=[0x04B33638]
  0x004A50D1    e9 94 fe ff ff                                   jmp     loc_4A4F6A    ; code_refs=[0x004A4F6A]

loc_4A50D6: ; preds=loc_4A50BA succs=loc_4A4F64
  0x004A50D6    ff d7                                            call    edi ; _findclose    ; code_refs=[0x0053C434]
  0x004A50D8    83 c4 04                                         add     esp, 4
  0x004A50DB    e9 84 fe ff ff                                   jmp     loc_4A4F64    ; code_refs=[0x004A4F64]

loc_4A50E0: ; preds=loc_4A4F6A succs=loc_4A50E8,loc_4A50FD
  0x004A50E0    f6 44 24 38 10                                   test    byte ptr [esp+214h+FindData.attrib], 10h    ; data_refs=[0x000426F9]
  0x004A50E5    50                                               push    eax; FindHandle
  0x004A50E6    74 15                                            jz      short loc_4A50FD    ; code_refs=[0x004A50FD]

loc_4A50E8: ; preds=loc_4A50E0 succs=loc_4A4F8F
  0x004A50E8    ff d7                                            call    edi ; _findclose    ; code_refs=[0x0053C434]
  0x004A50EA    bd 01 00 00 00                                   mov     ebp, 1
  0x004A50EF    83 c4 04                                         add     esp, 4
  0x004A50F2    89 2d 3c 36 b3 04                                mov     dword_4B3363C, ebp    ; data_refs=[0x04B3363C]
  0x004A50F8    e9 92 fe ff ff                                   jmp     loc_4A4F8F    ; code_refs=[0x004A4F8F]

loc_4A50FD: ; preds=loc_4A50E0 succs=loc_4A4F84
  0x004A50FD    ff d7                                            call    edi ; _findclose    ; code_refs=[0x0053C434]
  0x004A50FF    83 c4 04                                         add     esp, 4
  0x004A5102    e9 7d fe ff ff                                   jmp     loc_4A4F84    ; code_refs=[0x004A4F84]

loc_4A5107: ; preds=loc_4A5109 succs=loc_4A5109
  0x004A5107    d9 c9                                            fxch    st(1)

loc_4A5109: ; preds=loc_4A5053,loc_4A5107 succs=loc_4A5107,loc_4A511D
  0x004A5109    d9 10                                            fst     dword ptr [eax]
  0x004A510B    89 58 0c                                         mov     [eax+0Ch], ebx
  0x004A510E    d9 c9                                            fxch    st(1)
  0x004A5110    83 c0 20                                         add     eax, 20h ; ' '
  0x004A5113    d9 50 e4                                         fst     dword ptr [eax-1Ch]
  0x004A5116    3d b8 b3 b4 04                                   cmp     eax, offset unk_4B4B3B8    ; data_refs=[0x04B4B3B8]
  0x004A511B    7c ea                                            jl      short loc_4A5107    ; code_refs=[0x004A5107]

loc_4A511D: ; preds=loc_4A5109 succs=loc_4A5131,loc_4A5138
  0x004A511D    8b 3d 6c c5 53 00                                mov     edi, ds:ShowCursor    ; data_refs=[0x0053C56C]
  0x004A5123    dd d8                                            fstp    st
  0x004A5125    53                                               push    ebx; bShow
  0x004A5126    dd d8                                            fstp    st
  0x004A5128    ff d7                                            call    edi ; ShowCursor    ; code_refs=[0x0053C56C]
  0x004A512A    55                                               push    ebp; bShow
  0x004A512B    ff d7                                            call    edi ; ShowCursor    ; code_refs=[0x0053C56C]
  0x004A512D    3b c3                                            cmp     eax, ebx
  0x004A512F    7c 07                                            jl      short loc_4A5138    ; code_refs=[0x004A5138]

loc_4A5131: ; preds=loc_4A511D,loc_4A5131 succs=loc_4A5138,loc_4A5131
  0x004A5131    53                                               push    ebx; bShow
  0x004A5132    ff d7                                            call    edi ; ShowCursor    ; code_refs=[0x0053C56C]
  0x004A5134    3b c3                                            cmp     eax, ebx
  0x004A5136    7d f9                                            jge     short loc_4A5131    ; code_refs=[0x004A5131]

loc_4A5138: ; preds=loc_4A511D,loc_4A5131 succs=loc_4A5164,loc_4A5172
  0x004A5138    ba ba 1c 00 00                                   mov     edx, 1CBAh
  0x004A513D    b9 e8 18 54 00                                   mov     ecx, offset aShareclientsev_2; "..\\ShareClientSeverCode\\main.cpp"    ; data_refs=[0x005418E8]
  0x004A5142    e8 09 5d 08 00                                   call    sub_52AE50    ; code_refs=[0x0052AE50]
  0x004A5147    68 ac a9 10 00                                   push    10A9ACh; Size
  0x004A514C    e8 df 69 08 00                                   call    sub_52BB30    ; code_refs=[0x0052BB30]
  0x004A5151    83 c4 04                                         add     esp, 4
  0x004A5154    89 44 24 20                                      mov     dword ptr [esp+214h+Time], eax
  0x004A5158    c6 84 24 10 02 00 00 02                          mov     byte ptr [esp+214h+var_4], 2
  0x004A5160    3b c3                                            cmp     eax, ebx
  0x004A5162    74 0e                                            jz      short loc_4A5172    ; code_refs=[0x004A5172]

loc_4A5164: ; preds=loc_4A5138 succs=loc_4A5174
  0x004A5164    68 70 2b 54 00                                   push    offset aXaddSnowpathBi; "xadd\\snowpath.bin"    ; data_refs=[0x00542B70]
  0x004A5169    8b c8                                            mov     ecx, eax
  0x004A516B    e8 20 fc 02 00                                   call    sub_4D4D90    ; code_refs=[0x004D4D90]
  0x004A5170    eb 02                                            jmp     short loc_4A5174    ; code_refs=[0x004A5174]

loc_4A5172: ; preds=loc_4A5138 succs=loc_4A5174
  0x004A5172    33 c0                                            xor     eax, eax

loc_4A5174: ; preds=loc_4A5164,loc_4A5172 succs=loc_4A5190,loc_4A51AD
  0x004A5174    8b 35 d4 c3 53 00                                mov     esi, ds:sprintf    ; data_refs=[0x0053C3D4]
  0x004A517A    a3 40 08 ac 04                                   mov     dword_4AC0840, eax    ; data_refs=[0x04AC0840]
  0x004A517F    a1 ec 35 b3 04                                   mov     eax, dword_4B335EC    ; data_refs=[0x04B335EC]
  0x004A5184    c6 84 24 10 02 00 00 00                          mov     byte ptr [esp+214h+var_4], 0
  0x004A518C    3b c3                                            cmp     eax, ebx
  0x004A518E    74 1d                                            jz      short loc_4A51AD    ; code_refs=[0x004A51AD]

loc_4A5190: ; preds=loc_4A5174 succs=loc_4A5194,loc_4A51AD
  0x004A5190    3b c5                                            cmp     eax, ebp
  0x004A5192    74 19                                            jz      short loc_4A51AD    ; code_refs=[0x004A51AD]

loc_4A5194: ; preds=loc_4A5190 succs=loc_4A51E0
  0x004A5194    68 fc 09 ae 04                                   push    offset word_4AE09FC    ; data_refs=[0x04AE09FC]
  0x004A5199    8d 8c 24 64 01 00 00                             lea     ecx, [esp+218h+var_B4]
  0x004A51A0    68 5c 2b 54 00                                   push    offset aFontsFont1SPcx; "fonts\\font1%s.pcx"    ; data_refs=[0x00542B5C]
  0x004A51A5    51                                               push    ecx; Buffer
  0x004A51A6    ff d6                                            call    esi ; sprintf    ; code_refs=[0x0053C3D4]
  0x004A51A8    83 c4 0c                                         add     esp, 0Ch
  0x004A51AB    eb 33                                            jmp     short loc_4A51E0    ; code_refs=[0x004A51E0]

loc_4A51AD: ; preds=loc_4A5174,loc_4A5190 succs=loc_4A51E0
  0x004A51AD    8b 15 4c 2b 54 00                                mov     edx, ds:dword_542B4C    ; data_refs=[0x00542B4C]
  0x004A51B3    a1 50 2b 54 00                                   mov     eax, ds:dword_542B50    ; data_refs=[0x00542B50]
  0x004A51B8    8b 0d 54 2b 54 00                                mov     ecx, ds:dword_542B54    ; data_refs=[0x00542B54]
  0x004A51BE    89 94 24 60 01 00 00                             mov     dword ptr [esp+214h+var_B4], edx
  0x004A51C5    8b 15 58 2b 54 00                                mov     edx, ds:off_542B58    ; data_refs=[0x00542B58]
  0x004A51CB    89 84 24 64 01 00 00                             mov     [esp+214h+var_B0], eax
  0x004A51D2    89 8c 24 68 01 00 00                             mov     [esp+214h+var_AC], ecx
  0x004A51D9    89 94 24 6c 01 00 00                             mov     [esp+214h+var_A8], edx

loc_4A51E0: ; preds=loc_4A5194,loc_4A51AD succs=loc_4A51FB,loc_4A5218
  0x004A51E0    6a 05                                            push    5
  0x004A51E2    55                                               push    ebp
  0x004A51E3    55                                               push    ebp
  0x004A51E4    8d 94 24 6c 01 00 00                             lea     edx, [esp+220h+var_B4]
  0x004A51EB    33 c9                                            xor     ecx, ecx
  0x004A51ED    e8 ce 4a ff ff                                   call    sub_499CC0    ; code_refs=[0x00499CC0]
  0x004A51F2    a1 ec 35 b3 04                                   mov     eax, dword_4B335EC    ; data_refs=[0x04B335EC]
  0x004A51F7    3b c3                                            cmp     eax, ebx
  0x004A51F9    74 1d                                            jz      short loc_4A5218    ; code_refs=[0x004A5218]

loc_4A51FB: ; preds=loc_4A51E0 succs=loc_4A51FF,loc_4A5218
  0x004A51FB    3b c5                                            cmp     eax, ebp
  0x004A51FD    74 19                                            jz      short loc_4A5218    ; code_refs=[0x004A5218]

loc_4A51FF: ; preds=loc_4A51FB succs=loc_4A524B
  0x004A51FF    68 fc 09 ae 04                                   push    offset word_4AE09FC    ; data_refs=[0x04AE09FC]
  0x004A5204    8d 84 24 64 01 00 00                             lea     eax, [esp+218h+var_B4]
  0x004A520B    68 38 2b 54 00                                   push    offset aFontsFont2SPcx; "fonts\\font2%s.pcx"    ; data_refs=[0x00542B38]
  0x004A5210    50                                               push    eax; Buffer
  0x004A5211    ff d6                                            call    esi ; sprintf    ; code_refs=[0x0053C3D4]
  0x004A5213    83 c4 0c                                         add     esp, 0Ch
  0x004A5216    eb 33                                            jmp     short loc_4A524B    ; code_refs=[0x004A524B]

loc_4A5218: ; preds=loc_4A51E0,loc_4A51FB succs=loc_4A524B
  0x004A5218    8b 0d 28 2b 54 00                                mov     ecx, ds:dword_542B28    ; data_refs=[0x00542B28]
  0x004A521E    8b 15 2c 2b 54 00                                mov     edx, ds:dword_542B2C    ; data_refs=[0x00542B2C]
  0x004A5224    a1 30 2b 54 00                                   mov     eax, ds:dword_542B30    ; data_refs=[0x00542B30]
  0x004A5229    89 8c 24 60 01 00 00                             mov     dword ptr [esp+214h+var_B4], ecx
  0x004A5230    8b 0d 34 2b 54 00                                mov     ecx, ds:off_542B34    ; data_refs=[0x00542B34]
  0x004A5236    89 94 24 64 01 00 00                             mov     [esp+214h+var_B0], edx
  0x004A523D    89 84 24 68 01 00 00                             mov     [esp+214h+var_AC], eax
  0x004A5244    89 8c 24 6c 01 00 00                             mov     [esp+214h+var_A8], ecx

loc_4A524B: ; preds=loc_4A51FF,loc_4A5218 succs=loc_4A52D5
  0x004A524B    6a 03                                            push    3
  0x004A524D    55                                               push    ebp
  0x004A524E    55                                               push    ebp
  0x004A524F    8d 94 24 6c 01 00 00                             lea     edx, [esp+220h+var_B4]
  0x004A5256    8b cd                                            mov     ecx, ebp
  0x004A5258    e8 63 4a ff ff                                   call    sub_499CC0    ; code_refs=[0x00499CC0]
  0x004A525D    d9 ee                                            fldz
  0x004A525F    d9 15 50 14 b4 04                                fst     flt_4B41450    ; data_refs=[0x04B41450]
  0x004A5265    33 c0                                            xor     eax, eax
  0x004A5267    d9 15 60 14 b4 04                                fst     flt_4B41460    ; data_refs=[0x04B41460]
  0x004A526D    89 44 24 14                                      mov     [esp+214h+var_200], eax
  0x004A5271    d9 e8                                            fld1
  0x004A5273    d9 15 70 14 b4 04                                fst     flt_4B41470    ; data_refs=[0x04B41470]
  0x004A5279    d9 c9                                            fxch    st(1)
  0x004A527B    d9 15 80 14 b4 04                                fst     flt_4B41480    ; data_refs=[0x04B41480]
  0x004A5281    d9 05 38 d8 53 00                                fld     ds:flt_53D838    ; data_refs=[0x0053D838]
  0x004A5287    d9 15 54 14 b4 04                                fst     flt_4B41454    ; data_refs=[0x04B41454]
  0x004A528D    d9 1d 68 14 b4 04                                fstp    flt_4B41468    ; data_refs=[0x04B41468]
  0x004A5293    d9 15 64 14 b4 04                                fst     flt_4B41464    ; data_refs=[0x04B41464]
  0x004A5299    d9 15 74 14 b4 04                                fst     flt_4B41474    ; data_refs=[0x04B41474]
  0x004A529F    d9 15 84 14 b4 04                                fst     flt_4B41484    ; data_refs=[0x04B41484]
  0x004A52A5    d9 15 58 14 b4 04                                fst     flt_4B41458    ; data_refs=[0x04B41458]
  0x004A52AB    d9 15 78 14 b4 04                                fst     flt_4B41478    ; data_refs=[0x04B41478]
  0x004A52B1    d9 15 88 14 b4 04                                fst     flt_4B41488    ; data_refs=[0x04B41488]
  0x004A52B7    d9 15 5c 14 b4 04                                fst     flt_4B4145C    ; data_refs=[0x04B4145C]
  0x004A52BD    d9 15 6c 14 b4 04                                fst     flt_4B4146C    ; data_refs=[0x04B4146C]
  0x004A52C3    d9 1d 7c 14 b4 04                                fstp    flt_4B4147C    ; data_refs=[0x04B4147C]
  0x004A52C9    d9 1d 8c 14 b4 04                                fstp    flt_4B4148C    ; data_refs=[0x04B4148C]
  0x004A52CF    dd 05 20 2b 54 00                                fld     ds:dbl_542B20    ; data_refs=[0x00542B20]

loc_4A52D5: ; preds=loc_4A524B,loc_4A52D5 succs=loc_4A52ED,loc_4A52D5
  0x004A52D5    db 44 24 14                                      fild    [esp+214h+var_200]
  0x004A52D9    d8 f1                                            fdiv    st, st(1)
  0x004A52DB    d9 1c 85 a8 39 a4 04                             fstp    flt_4A439A8[eax*4]    ; data_refs=[0x04A439A8]
  0x004A52E2    03 c5                                            add     eax, ebp
  0x004A52E4    89 44 24 14                                      mov     [esp+214h+var_200], eax
  0x004A52E8    83 f8 07                                         cmp     eax, 7
  0x004A52EB    7c e8                                            jl      short loc_4A52D5    ; code_refs=[0x004A52D5]

loc_4A52ED: ; preds=loc_4A52D5 succs=loc_4A5350
  0x004A52ED    dd d8                                            fstp    st
  0x004A52EF    d9 05 b4 df 53 00                                fld     ds:flt_53DFB4    ; data_refs=[0x0053DFB4]
  0x004A52F5    d9 1d 58 74 ae 04                                fstp    flt_4AE7458    ; data_refs=[0x04AE7458]
  0x004A52FB    d9 05 74 1c 54 00                                fld     ds:flt_541C74    ; data_refs=[0x00541C74]
  0x004A5301    d9 1d 5c 74 ae 04                                fstp    flt_4AE745C    ; data_refs=[0x04AE745C]
  0x004A5307    d9 05 a8 18 54 00                                fld     ds:flt_5418A8    ; data_refs=[0x005418A8]
  0x004A530D    d9 1d 60 74 ae 04                                fstp    flt_4AE7460    ; data_refs=[0x04AE7460]
  0x004A5313    d9 05 18 2b 54 00                                fld     ds:flt_542B18    ; data_refs=[0x00542B18]
  0x004A5319    d9 1d 64 74 ae 04                                fstp    flt_4AE7464    ; data_refs=[0x04AE7464]
  0x004A531F    d9 05 14 2b 54 00                                fld     ds:flt_542B14    ; data_refs=[0x00542B14]
  0x004A5325    d9 1d 68 74 ae 04                                fstp    flt_4AE7468    ; data_refs=[0x04AE7468]
  0x004A532B    d9 05 10 2b 54 00                                fld     ds:flt_542B10    ; data_refs=[0x00542B10]
  0x004A5331    d9 1d 6c 74 ae 04                                fstp    flt_4AE746C    ; data_refs=[0x04AE746C]
  0x004A5337    d9 05 70 e7 53 00                                fld     ds:flt_53E770    ; data_refs=[0x0053E770]
  0x004A533D    d9 1d 70 74 ae 04                                fstp    flt_4AE7470    ; data_refs=[0x04AE7470]
  0x004A5343    e8 88 84 fe ff                                   call    sub_48D7D0    ; code_refs=[0x0048D7D0]
  0x004A5348    33 ed                                            xor     ebp, ebp
  0x004A534A    33 ff                                            xor     edi, edi
  0x004A534C    89 7c 24 18                                      mov     [esp+214h+var_1FC], edi

loc_4A5350: ; preds=loc_4A52ED,loc_4A53A0 succs=loc_4A5382,loc_4A538C
  0x004A5350    db 44 24 18                                      fild    [esp+214h+var_1FC]
  0x004A5354    dc 35 08 2b 54 00                                fdiv    ds:dbl_542B08    ; data_refs=[0x00542B08]
  0x004A535A    dc 05 30 d8 53 00                                fadd    ds:dbl_53D830    ; data_refs=[0x0053D830]
  0x004A5360    dc 25 00 2b 54 00                                fsub    ds:dbl_542B00    ; data_refs=[0x00542B00]
  0x004A5366    d9 5c 24 18                                      fstp    [esp+214h+var_1FC]
  0x004A536A    d9 44 24 18                                      fld     [esp+214h+var_1FC]
  0x004A536E    dc 05 d8 d7 53 00                                fadd    ds:dbl_53D7D8    ; data_refs=[0x0053D7D8]
  0x004A5374    e8 57 92 08 00                                   call    __ftol2_sse    ; code_refs=[0x0052E5D0]
  0x004A5379    48                                               dec     eax
  0x004A537A    89 44 24 14                                      mov     [esp+214h+var_200], eax
  0x004A537E    3b eb                                            cmp     ebp, ebx
  0x004A5380    7d 0a                                            jge     short loc_4A538C    ; code_refs=[0x004A538C]

loc_4A5382: ; preds=loc_4A5350 succs=
  0x004A5382    b9 00 f7 b3 04                                   mov     ecx, offset byte_4B3F700    ; data_refs=[0x04B3F700]
  0x004A5387    e8 64 bd f9 ff                                   call    sub_4410F0    ; code_refs=[0x004410F0]

loc_4A538C: ; preds=loc_4A5350 succs=loc_4A5394,loc_4A53A0
  0x004A538C    3b 2d fc f6 b3 04                                cmp     ebp, dword_4B3F6FC    ; data_refs=[0x04B3F6FC]
  0x004A5392    7c 0c                                            jl      short loc_4A53A0    ; code_refs=[0x004A53A0]

loc_4A5394: ; preds=loc_4A538C succs=
  0x004A5394    8b d5                                            mov     edx, ebp
  0x004A5396    b9 00 f7 b3 04                                   mov     ecx, offset byte_4B3F700    ; data_refs=[0x04B3F700]
  0x004A539B    e8 80 bd f9 ff                                   call    sub_441120    ; code_refs=[0x00441120]

loc_4A53A0: ; preds=loc_4A538C succs=loc_4A5350,loc_4A53C5
  0x004A53A0    d9 44 24 18                                      fld     [esp+214h+var_1FC]
  0x004A53A4    8b 15 f8 f6 b3 04                                mov     edx, dword_4B3F6F8    ; data_refs=[0x04B3F6F8]
  0x004A53AA    da 64 24 14                                      fisub   [esp+214h+var_200]
  0x004A53AE    81 c7 fe 00 00 00                                add     edi, 0FEh
  0x004A53B4    45                                               inc     ebp
  0x004A53B5    89 7c 24 18                                      mov     [esp+214h+var_1FC], edi
  0x004A53B9    d9 5c aa fc                                      fstp    dword ptr [edx+ebp*4-4]
  0x004A53BD    81 ff e8 0b 00 00                                cmp     edi, 0BE8h
  0x004A53C3    7c 8b                                            jl      short loc_4A5350    ; code_refs=[0x004A5350]

loc_4A53C5: ; preds=loc_4A53A0 succs=loc_4A53D0
  0x004A53C5    bd 38 b6 a8 04                                   mov     ebp, offset dword_4A8B638    ; data_refs=[0x04A8B638]
  0x004A53CA    8d 9b 00 00 00 00                                lea     ebx, [ebx+0]

loc_4A53D0: ; preds=loc_4A53C5,loc_4A5404 succs=loc_4A5404,loc_4A561C
  0x004A53D0    b9 00 00 02 00                                   mov     ecx, 20000h
  0x004A53D5    e8 b6 43 03 00                                   call    sub_4D9790    ; code_refs=[0x004D9790]
  0x004A53DA    8b 0d f0 b2 bb 04                                mov     ecx, dword_4BBB2F0    ; data_refs=[0x04BBB2F0]
  0x004A53E0    55                                               push    ebp
  0x004A53E1    6a 01                                            push    1
  0x004A53E3    6a 1a                                            push    1Ah
  0x004A53E5    53                                               push    ebx
  0x004A53E6    6a 01                                            push    1
  0x004A53E8    68 00 01 00 00                                   push    100h
  0x004A53ED    68 00 01 00 00                                   push    100h
  0x004A53F2    53                                               push    ebx
  0x004A53F3    89 5d 00                                         mov     [ebp+0], ebx
  0x004A53F6    e8 f5 36 07 00                                   call    sub_518AF0    ; code_refs=[0x00518AF0]
  0x004A53FB    39 5d 00                                         cmp     [ebp+0], ebx
  0x004A53FE    0f 84 18 02 00 00                                jz      loc_4A561C    ; code_refs=[0x004A561C]

loc_4A5404: ; preds=loc_4A53D0 succs=loc_4A53D0,loc_4A540F
  0x004A5404    83 c5 10                                         add     ebp, 10h
  0x004A5407    81 fd 58 b9 a8 04                                cmp     ebp, offset unk_4A8B958    ; data_refs=[0x04A8B958]
  0x004A540D    7c c1                                            jl      short loc_4A53D0    ; code_refs=[0x004A53D0]

loc_4A540F: ; preds=loc_4A5404 succs=loc_4A5419
  0x004A540F    dd 05 d8 d7 53 00                                fld     ds:dbl_53D7D8    ; data_refs=[0x0053D7D8]
  0x004A5415    33 ff                                            xor     edi, edi
  0x004A5417    33 ed                                            xor     ebp, ebp

loc_4A5419: ; preds=loc_4A540F,loc_4A54AB succs=loc_4A541D,loc_4A542F
  0x004A5419    85 ff                                            test    edi, edi
  0x004A541B    79 12                                            jns     short loc_4A542F    ; code_refs=[0x004A542F]

loc_4A541D: ; preds=loc_4A5419 succs=
  0x004A541D    b9 00 f7 b3 04                                   mov     ecx, offset byte_4B3F700    ; data_refs=[0x04B3F700]
  0x004A5422    dd d8                                            fstp    st
  0x004A5424    e8 c7 bc f9 ff                                   call    sub_4410F0    ; code_refs=[0x004410F0]

loc_4A5429: ; preds= succs=loc_4A542F
  0x004A5429    dd 05 d8 d7 53 00                                fld     ds:dbl_53D7D8    ; data_refs=[0x0053D7D8]

loc_4A542F: ; preds=loc_4A5419,loc_4A5429 succs=loc_4A5437,loc_4A544B
  0x004A542F    3b 3d fc f6 b3 04                                cmp     edi, dword_4B3F6FC    ; data_refs=[0x04B3F6FC]
  0x004A5435    7c 14                                            jl      short loc_4A544B    ; code_refs=[0x004A544B]

loc_4A5437: ; preds=loc_4A542F succs=
  0x004A5437    8b d7                                            mov     edx, edi
  0x004A5439    dd d8                                            fstp    st
  0x004A543B    b9 00 f7 b3 04                                   mov     ecx, offset byte_4B3F700    ; data_refs=[0x04B3F700]
  0x004A5440    e8 db bc f9 ff                                   call    sub_441120    ; code_refs=[0x00441120]

loc_4A5445: ; preds= succs=loc_4A544B
  0x004A5445    dd 05 d8 d7 53 00                                fld     ds:dbl_53D7D8    ; data_refs=[0x0053D7D8]

loc_4A544B: ; preds=loc_4A542F,loc_4A5445 succs=loc_4A5459
  0x004A544B    a1 f8 f6 b3 04                                   mov     eax, dword_4B3F6F8    ; data_refs=[0x04B3F6F8]
  0x004A5450    d9 04 b8                                         fld     dword ptr [eax+edi*4]
  0x004A5453    33 f6                                            xor     esi, esi
  0x004A5455    d9 5c 24 18                                      fstp    [esp+214h+var_1FC]

loc_4A5459: ; preds=loc_4A544B,loc_4A5459 succs=loc_4A54AB,loc_4A5459
  0x004A5459    d9 44 24 18                                      fld     [esp+214h+var_1FC]
  0x004A545D    d9 c0                                            fld     st
  0x004A545F    d8 c2                                            fadd    st, st(2)
  0x004A5461    e8 6a 91 08 00                                   call    __ftol2_sse    ; code_refs=[0x0052E5D0]
  0x004A5466    d9 c0                                            fld     st
  0x004A5468    8d 58 ff                                         lea     ebx, [eax-1]
  0x004A546B    89 5c 24 18                                      mov     [esp+214h+var_1FC], ebx
  0x004A546F    da 64 24 18                                      fisub   [esp+214h+var_1FC]
  0x004A5473    d8 e2                                            fsub    st, st(2)
  0x004A5475    d9 5c 24 18                                      fstp    [esp+214h+var_1FC]
  0x004A5479    d9 44 24 18                                      fld     [esp+214h+var_1FC]
  0x004A547D    dc 0d f8 2a 54 00                                fmul    ds:dbl_542AF8    ; data_refs=[0x00542AF8]
  0x004A5483    d8 c2                                            fadd    st, st(2)
  0x004A5485    e8 46 91 08 00                                   call    __ftol2_sse    ; code_refs=[0x0052E5D0]
  0x004A548A    dc 05 f0 2a 54 00                                fadd    ds:dbl_542AF0    ; data_refs=[0x00542AF0]
  0x004A5490    88 84 2e 78 8d b2 04                             mov     byte_4B28D78[esi+ebp], al    ; data_refs=[0x04B28D78]
  0x004A5497    88 9c 2e 48 ec a4 04                             mov     byte_4A4EC48[esi+ebp], bl    ; data_refs=[0x04A4EC48]
  0x004A549E    46                                               inc     esi
  0x004A549F    d9 5c 24 18                                      fstp    [esp+214h+var_1FC]
  0x004A54A3    81 fe 00 01 00 00                                cmp     esi, 100h
  0x004A54A9    7c ae                                            jl      short loc_4A5459    ; code_refs=[0x004A5459]

loc_4A54AB: ; preds=loc_4A5459 succs=loc_4A5419,loc_4A54BB
  0x004A54AB    47                                               inc     edi
  0x004A54AC    81 c5 00 01 00 00                                add     ebp, 100h
  0x004A54B2    83 ff 0c                                         cmp     edi, 0Ch
  0x004A54B5    0f 8c 5e ff ff ff                                jl      loc_4A5419    ; code_refs=[0x004A5419]

loc_4A54BB: ; preds=loc_4A54AB succs=loc_4A54D4
  0x004A54BB    dd 05 e8 2a 54 00                                fld     ds:dbl_542AE8    ; data_refs=[0x00542AE8]
  0x004A54C1    c7 44 24 18 00 00 00 00                          mov     [esp+214h+var_1FC], 0
  0x004A54C9    dd 05 00 d8 53 00                                fld     ds:dbl_53D800    ; data_refs=[0x0053D800]
  0x004A54CF    b9 a9 f9 a3 04                                   mov     ecx, offset unk_4A3F9A9    ; data_refs=[0x04A3F9A9]

loc_4A54D4: ; preds=loc_4A54BB,loc_4A55DF succs=loc_4A54EE
  0x004A54D4    db 44 24 18                                      fild    [esp+214h+var_1FC]
  0x004A54D8    33 d2                                            xor     edx, edx
  0x004A54DA    89 54 24 14                                      mov     [esp+214h+var_200], edx
  0x004A54DE    d8 ca                                            fmul    st, st(2)
  0x004A54E0    d9 5c 24 1c                                      fstp    [esp+214h+var_1F8]
  0x004A54E4    d9 44 24 1c                                      fld     [esp+214h+var_1F8]
  0x004A54E8    d9 c0                                            fld     st
  0x004A54EA    d9 e8                                            fld1
  0x004A54EC    de e1                                            fsubrp  st(1), st

loc_4A54EE: ; preds=loc_4A54D4,loc_4A54EE succs=loc_4A55DF,loc_4A54EE
  0x004A54EE    db 44 24 14                                      fild    [esp+214h+var_200]
  0x004A54F2    42                                               inc     edx
  0x004A54F3    d9 7c 24 14                                      fnstcw  word ptr [esp+214h+var_200]
  0x004A54F7    83 c1 04                                         add     ecx, 4
  0x004A54FA    d8 cc                                            fmul    st, st(4)
  0x004A54FC    0f b7 44 24 14                                   movzx   eax, word ptr [esp+214h+var_200]
  0x004A5501    0d 00 0c 00 00                                   or      eax, 0C00h
  0x004A5506    d9 5c 24 1c                                      fstp    [esp+214h+var_1F8]
  0x004A550A    d9 44 24 1c                                      fld     [esp+214h+var_1F8]
  0x004A550E    d9 c0                                            fld     st
  0x004A5510    d9 e8                                            fld1
  0x004A5512    de e1                                            fsubrp  st(1), st
  0x004A5514    d9 c0                                            fld     st
  0x004A5516    d8 cb                                            fmul    st, st(3)
  0x004A5518    d9 5c 24 1c                                      fstp    [esp+214h+var_1F8]
  0x004A551C    d9 c1                                            fld     st(1)
  0x004A551E    d8 cb                                            fmul    st, st(3)
  0x004A5520    d9 5c 24 2c                                      fstp    [esp+214h+var_1E8]
  0x004A5524    d8 cb                                            fmul    st, st(3)
  0x004A5526    d9 5c 24 28                                      fstp    [esp+214h+var_1EC]
  0x004A552A    d8 ca                                            fmul    st, st(2)
  0x004A552C    d9 5c 24 20                                      fstp    dword ptr [esp+214h+Time]
  0x004A5530    d9 44 24 1c                                      fld     [esp+214h+var_1F8]
  0x004A5534    89 44 24 1c                                      mov     [esp+214h+var_1F8], eax
  0x004A5538    d8 cb                                            fmul    st, st(3)
  0x004A553A    d9 6c 24 1c                                      fldcw   word ptr [esp+214h+var_1F8]
  0x004A553E    db 5c 24 1c                                      fistp   [esp+214h+var_1F8]
  0x004A5542    0f b6 44 24 1c                                   movzx   eax, byte ptr [esp+214h+var_1F8]
  0x004A5547    88 41 fb                                         mov     [ecx-5], al
  0x004A554A    d9 6c 24 14                                      fldcw   word ptr [esp+214h+var_200]
  0x004A554E    d9 44 24 2c                                      fld     [esp+214h+var_1E8]
  0x004A5552    d9 7c 24 14                                      fnstcw  word ptr [esp+214h+var_200]
  0x004A5556    d8 cb                                            fmul    st, st(3)
  0x004A5558    0f b7 44 24 14                                   movzx   eax, word ptr [esp+214h+var_200]
  0x004A555D    0d 00 0c 00 00                                   or      eax, 0C00h
  0x004A5562    89 44 24 2c                                      mov     [esp+214h+var_1E8], eax
  0x004A5566    d9 6c 24 2c                                      fldcw   word ptr [esp+214h+var_1E8]
  0x004A556A    db 5c 24 2c                                      fistp   [esp+214h+var_1E8]
  0x004A556E    0f b6 44 24 2c                                   movzx   eax, byte ptr [esp+214h+var_1E8]
  0x004A5573    88 41 fc                                         mov     [ecx-4], al
  0x004A5576    d9 6c 24 14                                      fldcw   word ptr [esp+214h+var_200]
  0x004A557A    d9 44 24 28                                      fld     [esp+214h+var_1EC]
  0x004A557E    d9 7c 24 14                                      fnstcw  word ptr [esp+214h+var_200]
  0x004A5582    d8 cb                                            fmul    st, st(3)
  0x004A5584    0f b7 44 24 14                                   movzx   eax, word ptr [esp+214h+var_200]
  0x004A5589    0d 00 0c 00 00                                   or      eax, 0C00h
  0x004A558E    89 44 24 28                                      mov     [esp+214h+var_1EC], eax
  0x004A5592    d9 6c 24 28                                      fldcw   word ptr [esp+214h+var_1EC]
  0x004A5596    db 5c 24 28                                      fistp   [esp+214h+var_1EC]
  0x004A559A    0f b6 44 24 28                                   movzx   eax, byte ptr [esp+214h+var_1EC]
  0x004A559F    88 41 fd                                         mov     [ecx-3], al
  0x004A55A2    d9 6c 24 14                                      fldcw   word ptr [esp+214h+var_200]
  0x004A55A6    d9 44 24 20                                      fld     dword ptr [esp+214h+Time]
  0x004A55AA    d9 7c 24 14                                      fnstcw  word ptr [esp+214h+var_200]
  0x004A55AE    d8 cb                                            fmul    st, st(3)
  0x004A55B0    0f b7 44 24 14                                   movzx   eax, word ptr [esp+214h+var_200]
  0x004A55B5    0d 00 0c 00 00                                   or      eax, 0C00h
  0x004A55BA    89 44 24 20                                      mov     dword ptr [esp+214h+Time], eax
  0x004A55BE    d9 6c 24 20                                      fldcw   word ptr [esp+214h+Time]
  0x004A55C2    db 5c 24 20                                      fistp   dword ptr [esp+214h+Time]
  0x004A55C6    0f b6 44 24 20                                   movzx   eax, byte ptr [esp+214h+Time]
  0x004A55CB    88 41 fe                                         mov     [ecx-2], al
  0x004A55CE    d9 6c 24 14                                      fldcw   word ptr [esp+214h+var_200]
  0x004A55D2    89 54 24 14                                      mov     [esp+214h+var_200], edx
  0x004A55D6    83 fa 40                                         cmp     edx, 40h ; '@'
  0x004A55D9    0f 8c 0f ff ff ff                                jl      loc_4A54EE    ; code_refs=[0x004A54EE]

loc_4A55DF: ; preds=loc_4A54EE succs=loc_4A54D4,loc_4A55F3
  0x004A55DF    ff 44 24 18                                      inc     [esp+214h+var_1FC]
  0x004A55E3    dd d9                                            fstp    st(1)
  0x004A55E5    dd d8                                            fstp    st
  0x004A55E7    81 f9 a9 39 a4 04                                cmp     ecx, (offset flt_4A439A8+1)    ; data_refs=[0x04A439A9]
  0x004A55ED    0f 8c e1 fe ff ff                                jl      loc_4A54D4    ; code_refs=[0x004A54D4]

loc_4A55F3: ; preds=loc_4A55DF succs=loc_4A5603
  0x004A55F3    dd d8                                            fstp    st
  0x004A55F5    33 db                                            xor     ebx, ebx
  0x004A55F7    dd d8                                            fstp    st
  0x004A55F9    89 5c 24 14                                      mov     [esp+214h+var_200], ebx
  0x004A55FD    dd 05 e0 2a 54 00                                fld     ds:dbl_542AE0    ; data_refs=[0x00542AE0]

loc_4A5603: ; preds=loc_4A55F3,loc_4A566F succs=loc_4A560B,loc_4A5626
  0x004A5603    81 fb dc 00 00 00                                cmp     ebx, 0DCh
  0x004A5609    7e 1b                                            jle     short loc_4A5626    ; code_refs=[0x004A5626]

loc_4A560B: ; preds=loc_4A5603 succs=loc_4A566F
  0x004A560B    88 1c 5d 30 3f a4 04                             mov     byte_4A43F30[ebx*2], bl    ; data_refs=[0x04A43F30]
  0x004A5612    c6 04 5d 31 3f a4 04 00                          mov     byte_4A43F31[ebx*2], 0    ; data_refs=[0x04A43F31]
  0x004A561A    eb 53                                            jmp     short loc_4A566F    ; code_refs=[0x004A566F]

loc_4A561C: ; preds=loc_4A53D0 succs=
  0x004A561C    b9 b4 2a 54 00                                   mov     ecx, offset aCreatetextureF_0; "CreateTexture for landscape cash failed"    ; data_refs=[0x00542AB4]
  0x004A5621    e8 0a 42 ff ff                                   call    sub_499830    ; code_refs=[0x00499830]

loc_4A5626: ; preds=loc_4A5603 succs=loc_4A566F
  0x004A5626    db 44 24 14                                      fild    [esp+214h+var_200]
  0x004A562A    d9 5c 24 20                                      fstp    dword ptr [esp+214h+Time]
  0x004A562E    d9 44 24 20                                      fld     dword ptr [esp+214h+Time]
  0x004A5632    d9 c0                                            fld     st
  0x004A5634    d8 cb                                            fmul    st, st(3)
  0x004A5636    d8 f2                                            fdiv    st, st(2)
  0x004A5638    d8 c3                                            fadd    st, st(3)
  0x004A563A    d9 5c 24 20                                      fstp    dword ptr [esp+214h+Time]
  0x004A563E    d8 4c 24 20                                      fmul    dword ptr [esp+214h+Time]
  0x004A5642    d8 c2                                            fadd    st, st(2)
  0x004A5644    e8 87 8f 08 00                                   call    __ftol2_sse    ; code_refs=[0x0052E5D0]
  0x004A5649    8b c8                                            mov     ecx, eax
  0x004A564B    8b c3                                            mov     eax, ebx
  0x004A564D    2b c1                                            sub     eax, ecx
  0x004A564F    69 c0 8c 00 00 00                                imul    eax, 8Ch
  0x004A5655    99                                               cdq
  0x004A5656    81 e2 ff 00 00 00                                and     edx, 0FFh
  0x004A565C    03 c2                                            add     eax, edx
  0x004A565E    c1 f8 08                                         sar     eax, 8
  0x004A5661    88 0c 5d 30 3f a4 04                             mov     byte_4A43F30[ebx*2], cl    ; data_refs=[0x04A43F30]
  0x004A5668    88 04 5d 31 3f a4 04                             mov     byte_4A43F31[ebx*2], al    ; data_refs=[0x04A43F31]

loc_4A566F: ; preds=loc_4A560B,loc_4A5626 succs=loc_4A5603,loc_4A567C
  0x004A566F    43                                               inc     ebx
  0x004A5670    89 5c 24 14                                      mov     [esp+214h+var_200], ebx
  0x004A5674    81 fb 00 01 00 00                                cmp     ebx, 100h
  0x004A567A    7c 87                                            jl      short loc_4A5603    ; code_refs=[0x004A5603]

loc_4A567C: ; preds=loc_4A566F succs=
  0x004A567C    68 00 01 00 00                                   push    100h; Size
  0x004A5681    dd d8                                            fstp    st
  0x004A5683    6a 00                                            push    0; Val
  0x004A5685    dd d8                                            fstp    st
  0x004A5687    68 00 68 a4 04                                   push    offset byte_4A46800; void *    ; data_refs=[0x04A46800]
  0x004A568C    e8 09 8e 08 00                                   call    memset    ; code_refs=[0x0052E49A]
  0x004A5691    83 c4 0c                                         add     esp, 0Ch
  0x004A5694    c6 05 ff 68 a4 04 01                             mov     byte_4A468FF, 1    ; data_refs=[0x04A468FF]
  0x004A569B    c7 05 23 68 a4 04 01 01 01 01                    mov     dword_4A46823, offset unk_1010101    ; data_refs=[0x01010101,0x04A46823]
  0x004A56A5    66 c7 05 27 68 a4 04 01 01                       mov     word_4A46827, 101h    ; data_refs=[0x04A46827]
  0x004A56AE    c6 05 2e 68 a4 04 01                             mov     byte_4A4682E, 1    ; data_refs=[0x04A4682E]
  0x004A56B5    66 c7 05 21 68 a4 04 01 01                       mov     word_4A46821, 101h    ; data_refs=[0x04A46821]
  0x004A56BE    e8 fd be fe ff                                   call    sub_4915C0    ; code_refs=[0x004915C0]
  0x004A56C3    8d 4c 24 30                                      lea     ecx, [esp+214h+var_1E4]
  0x004A56C7    c7 84 24 10 02 00 00 ff ff ff ff                 mov     [esp+214h+var_4], 0FFFFFFFFh
  0x004A56D2    e8 f9 a6 01 00                                   call    sub_4BFDD0    ; code_refs=[0x004BFDD0]
  0x004A56D7    8b 8c 24 08 02 00 00                             mov     ecx, [esp+214h+var_C]
  0x004A56DE    64 89 0d 00 00 00 00                             mov     large fs:0, ecx
  0x004A56E5    59                                               pop     ecx
  0x004A56E6    5f                                               pop     edi
  0x004A56E7    5e                                               pop     esi
  0x004A56E8    5d                                               pop     ebp
  0x004A56E9    5b                                               pop     ebx
  0x004A56EA    8b 8c 24 f0 01 00 00                             mov     ecx, [esp+200h+var_10]
  0x004A56F1    33 cc                                            xor     ecx, esp
  0x004A56F3    e8 a8 8d 08 00                                   call    sub_52E4A0    ; code_refs=[0x0052E4A0]
  0x004A56F8    81 c4 00 02 00 00                                add     esp, 200h
  0x004A56FE    c3                                               retn

loc_531070: ; preds= succs=loc_4BFDD0
  0x00531070    8d 8d 1c fe ff ff                                lea     ecx, [ebp-1E4h]
  0x00531076    e9 55 ed f8 ff                                   jmp     sub_4BFDD0    ; code_refs=[0x004BFDD0]

loc_53107B:
  0x0053107B    a1 8c ed a2 04                                   mov     eax, dword_4A2ED8C    ; data_refs=[0x04A2ED8C]
  0x00531080    83 e0 fe                                         and     eax, 0FFFFFFFEh
  0x00531083    a3 8c ed a2 04                                   mov     dword_4A2ED8C, eax    ; data_refs=[0x04A2ED8C]
  0x00531088    c3                                               retn

loc_531089:
  0x00531089    8b 85 0c fe ff ff                                mov     eax, [ebp-1F4h]
  0x0053108F    50                                               push    eax
  0x00531090    e8 1b aa ff ff                                   call    sub_52BAB0    ; code_refs=[0x0052BAB0]
  0x00531095    59                                               pop     ecx
  0x00531096    c3                                               retn

loc_531097: ; preds= succs=loc_52E5C6
  0x00531097    8b 54 24 08                                      mov     edx, [esp+arg_4]
  0x0053109B    8d 82 fc fd ff ff                                lea     eax, [edx-204h]
  0x005310A1    8b 8a f8 fd ff ff                                mov     ecx, [edx-208h]
  0x005310A7    33 c8                                            xor     ecx, eax
  0x005310A9    e8 f2 d3 ff ff                                   call    sub_52E4A0    ; code_refs=[0x0052E4A0]
  0x005310AE    83 c0 10                                         add     eax, 10h
  0x005310B1    8b 4a fc                                         mov     ecx, [edx-4]
  0x005310B4    33 c8                                            xor     ecx, eax
  0x005310B6    e8 e5 d3 ff ff                                   call    sub_52E4A0    ; code_refs=[0x0052E4A0]
  0x005310BB    b8 20 8a 55 00                                   mov     eax, offset stru_558A20    ; data_refs=[0x00558A20]
  0x005310C0    e9 01 d5 ff ff                                   jmp     __CxxFrameHandler3    ; code_refs=[0x0052E5C6]
; END_FUNC 0x004A48A0 sub_4A48A0


; ======================================================================================================================
; FUNC 0x004D6970 sub_4D6970 size=530 segment=.text
; STRINGS:
;   0x00564490 'N'
;   0x00544D1C 'Sounds\\*.def'
;   0x00544D14 'Sounds\\'
;   0x00544D18 'ds\\'
;   0x00544BBC '..\\ShareClientSeverCode\\SoundEffect.cpp'
;   0x00544D08 'soundeffect'
;   0x00559370 '"'
; ----------------------------------------------------------------------------------------------------------------------

loc_4D6970: ; preds= succs=loc_4D69D8,loc_4D6B3A
  0x004D6970    55                                               push    ebp
  0x004D6971    8b ec                                            mov     ebp, esp
  0x004D6973    83 e4 f8                                         and     esp, 0FFFFFFF8h
  0x004D6976    6a ff                                            push    0FFFFFFFFh
  0x004D6978    68 2e 1d 53 00                                   push    offset SEH_496970    ; data_refs=[0x00531D2E]
  0x004D697D    64 a1 00 00 00 00                                mov     eax, large fs:0
  0x004D6983    50                                               push    eax
  0x004D6984    81 ec 68 02 00 00                                sub     esp, 268h
  0x004D698A    a1 90 44 56 00                                   mov     eax, dword_564490    ; data_refs=[0x00564490]
  0x004D698F    33 c4                                            xor     eax, esp
  0x004D6991    89 84 24 60 02 00 00                             mov     [esp+274h+var_14], eax
  0x004D6998    53                                               push    ebx
  0x004D6999    56                                               push    esi
  0x004D699A    57                                               push    edi
  0x004D699B    a1 90 44 56 00                                   mov     eax, dword_564490    ; data_refs=[0x00564490]
  0x004D69A0    33 c4                                            xor     eax, esp
  0x004D69A2    50                                               push    eax
  0x004D69A3    8d 84 24 78 02 00 00                             lea     eax, [esp+284h+var_C]
  0x004D69AA    64 a3 00 00 00 00                                mov     large fs:0, eax
  0x004D69B0    8d 44 24 2c                                      lea     eax, [esp+284h+FindFileData]
  0x004D69B4    50                                               push    eax; lpFindFileData
  0x004D69B5    68 1c 4d 54 00                                   push    offset aSoundsDef; "Sounds\\*.def"    ; data_refs=[0x00544D1C]
  0x004D69BA    8b d9                                            mov     ebx, ecx
  0x004D69BC    ff 15 e4 c0 53 00                                call    ds:FindFirstFileA    ; code_refs=[0x0053C0E4] data_refs=[0x0053C0E4]
  0x004D69C2    8b f0                                            mov     esi, eax
  0x004D69C4    33 c0                                            xor     eax, eax
  0x004D69C6    83 fe ff                                         cmp     esi, 0FFFFFFFFh
  0x004D69C9    0f 95 c0                                         setnz   al
  0x004D69CC    89 74 24 14                                      mov     [esp+284h+hFindFile], esi
  0x004D69D0    85 c0                                            test    eax, eax
  0x004D69D2    0f 84 62 01 00 00                                jz      loc_4D6B3A    ; code_refs=[0x004D6B3A]

loc_4D69D8: ; preds=loc_4D6970 succs=loc_4D69E0
  0x004D69D8    eb 06                                            jmp     short loc_4D69E0    ; code_refs=[0x004D69E0]

loc_4D69E0: ; preds=loc_4D69D8,loc_4D6B22 succs=loc_4D69EB,loc_4D6B22
  0x004D69E0    f6 44 24 2c 10                                   test    byte ptr [esp+284h+FindFileData.dwFileAttributes], 10h    ; data_refs=[0x000426EC]
  0x004D69E5    0f 85 37 01 00 00                                jnz     loc_4D6B22    ; code_refs=[0x004D6B22]

loc_4D69EB: ; preds=loc_4D69E0 succs=loc_4D6A10
  0x004D69EB    8b 0d 14 4d 54 00                                mov     ecx, ds:dword_544D14    ; data_refs=[0x00544D14]
  0x004D69F1    8b 15 18 4d 54 00                                mov     edx, ds:off_544D18    ; data_refs=[0x00544D18]
  0x004D69F7    8d 44 24 58                                      lea     eax, [esp+284h+FindFileData.cFileName]    ; data_refs=[0x000426F4]
  0x004D69FB    89 8c 24 6c 01 00 00                             mov     dword ptr [esp+284h+Str], ecx
  0x004D6A02    89 94 24 70 01 00 00                             mov     [esp+284h+var_114], edx
  0x004D6A09    8b f0                                            mov     esi, eax
  0x004D6A0B    eb 03                                            jmp     short loc_4D6A10    ; code_refs=[0x004D6A10]

loc_4D6A10: ; preds=loc_4D69EB,loc_4D6A10 succs=loc_4D6A17,loc_4D6A10
  0x004D6A10    8a 08                                            mov     cl, [eax]
  0x004D6A12    40                                               inc     eax
  0x004D6A13    84 c9                                            test    cl, cl
  0x004D6A15    75 f9                                            jnz     short loc_4D6A10    ; code_refs=[0x004D6A10]

loc_4D6A17: ; preds=loc_4D6A10 succs=loc_4D6A21
  0x004D6A17    8d bc 24 6c 01 00 00                             lea     edi, [esp+284h+Str]
  0x004D6A1E    2b c6                                            sub     eax, esi
  0x004D6A20    4f                                               dec     edi

loc_4D6A21: ; preds=loc_4D6A17,loc_4D6A21 succs=loc_4D6A29,loc_4D6A21
  0x004D6A21    8a 4f 01                                         mov     cl, [edi+1]
  0x004D6A24    47                                               inc     edi
  0x004D6A25    84 c9                                            test    cl, cl
  0x004D6A27    75 f8                                            jnz     short loc_4D6A21    ; code_refs=[0x004D6A21]

loc_4D6A29: ; preds=loc_4D6A21 succs=loc_4D6A66,loc_4D6A71
  0x004D6A29    8b c8                                            mov     ecx, eax
  0x004D6A2B    c1 e9 02                                         shr     ecx, 2
  0x004D6A2E    f3 a5                                            rep movsd
  0x004D6A30    8b c8                                            mov     ecx, eax
  0x004D6A32    83 e1 03                                         and     ecx, 3
  0x004D6A35    f3 a4                                            rep movsb
  0x004D6A37    ba a8 01 00 00                                   mov     edx, 1A8h
  0x004D6A3C    b9 bc 4b 54 00                                   mov     ecx, offset aShareclientsev_31; "..\\ShareClientSeverCode\\SoundEffect.c"...    ; data_refs=[0x00544BBC]
  0x004D6A41    e8 0a 44 05 00                                   call    sub_52AE50    ; code_refs=[0x0052AE50]
  0x004D6A46    68 20 04 00 00                                   push    420h; Size
  0x004D6A4B    e8 e0 50 05 00                                   call    sub_52BB30    ; code_refs=[0x0052BB30]
  0x004D6A50    83 c4 04                                         add     esp, 4
  0x004D6A53    89 44 24 28                                      mov     [esp+284h+var_25C], eax
  0x004D6A57    c7 84 24 80 02 00 00 00 00 00 00                 mov     [esp+284h+var_4], 0
  0x004D6A62    85 c0                                            test    eax, eax
  0x004D6A64    74 0b                                            jz      short loc_4D6A71    ; code_refs=[0x004D6A71]

loc_4D6A66: ; preds=loc_4D6A29 succs=loc_4D6A73
  0x004D6A66    8b c8                                            mov     ecx, eax
  0x004D6A68    e8 a3 c9 ff ff                                   call    sub_4D3410    ; code_refs=[0x004D3410]
  0x004D6A6D    8b f0                                            mov     esi, eax
  0x004D6A6F    eb 02                                            jmp     short loc_4D6A73    ; code_refs=[0x004D6A73]

loc_4D6A71: ; preds=loc_4D6A29 succs=loc_4D6A73
  0x004D6A71    33 f6                                            xor     esi, esi

loc_4D6A73: ; preds=loc_4D6A66,loc_4D6A71 succs=loc_4D6AAB,loc_4D6AFF
  0x004D6A73    8d 84 24 6c 01 00 00                             lea     eax, [esp+284h+Str]
  0x004D6A7A    50                                               push    eax; Str
  0x004D6A7B    8b ce                                            mov     ecx, esi
  0x004D6A7D    c7 84 24 84 02 00 00 ff ff ff ff                 mov     [esp+288h+var_4], 0FFFFFFFFh
  0x004D6A88    e8 d3 d6 ff ff                                   call    sub_4D4160    ; code_refs=[0x004D4160]
  0x004D6A8D    6a 00                                            push    0
  0x004D6A8F    8b ce                                            mov     ecx, esi
  0x004D6A91    e8 da d5 ff ff                                   call    sub_4D4070    ; code_refs=[0x004D4070]
  0x004D6A96    8d 4c 24 18                                      lea     ecx, [esp+284h+var_26C]
  0x004D6A9A    51                                               push    ecx; int
  0x004D6A9B    68 08 4d 54 00                                   push    offset aSoundeffect; "soundeffect"    ; data_refs=[0x00544D08]
  0x004D6AA0    8b ce                                            mov     ecx, esi
  0x004D6AA2    e8 39 d6 ff ff                                   call    sub_4D40E0    ; code_refs=[0x004D40E0]
  0x004D6AA7    85 c0                                            test    eax, eax
  0x004D6AA9    74 54                                            jz      short loc_4D6AFF    ; code_refs=[0x004D6AFF]

loc_4D6AAB: ; preds=loc_4D6A73 succs=loc_4D6AB0
  0x004D6AAB    eb 03                                            jmp     short loc_4D6AB0    ; code_refs=[0x004D6AB0]

loc_4D6AB0: ; preds=loc_4D6AAB,loc_4D6ADE succs=loc_4D6AD6,loc_4D6ADE
  0x004D6AB0    8b cb                                            mov     ecx, ebx
  0x004D6AB2    e8 a9 fd ff ff                                   call    sub_4D6860    ; code_refs=[0x004D6860]
  0x004D6AB7    8d 54 24 20                                      lea     edx, [esp+284h+var_264]
  0x004D6ABB    52                                               push    edx
  0x004D6ABC    8b ce                                            mov     ecx, esi
  0x004D6ABE    8b f8                                            mov     edi, eax
  0x004D6AC0    e8 5b d6 ff ff                                   call    sub_4D4120    ; code_refs=[0x004D4120]
  0x004D6AC5    8d 44 24 18                                      lea     eax, [esp+284h+var_26C]
  0x004D6AC9    50                                               push    eax
  0x004D6ACA    56                                               push    esi
  0x004D6ACB    8b cf                                            mov     ecx, edi
  0x004D6ACD    e8 8e ec ff ff                                   call    sub_4D5760    ; code_refs=[0x004D5760]
  0x004D6AD2    85 c0                                            test    eax, eax
  0x004D6AD4    75 08                                            jnz     short loc_4D6ADE    ; code_refs=[0x004D6ADE]

loc_4D6AD6: ; preds=loc_4D6AB0 succs=loc_4D6ADB,loc_4D6ADE
  0x004D6AD6    ff 4b 08                                         dec     dword ptr [ebx+8]
  0x004D6AD9    79 03                                            jns     short loc_4D6ADE    ; code_refs=[0x004D6ADE]

loc_4D6ADB: ; preds=loc_4D6AD6 succs=loc_4D6ADE
  0x004D6ADB    89 43 08                                         mov     [ebx+8], eax

loc_4D6ADE: ; preds=loc_4D6AB0,loc_4D6AD6,loc_4D6ADB succs=loc_4D6AB0,loc_4D6AFF
  0x004D6ADE    8d 4c 24 20                                      lea     ecx, [esp+284h+var_264]
  0x004D6AE2    51                                               push    ecx
  0x004D6AE3    8b ce                                            mov     ecx, esi
  0x004D6AE5    e8 86 d5 ff ff                                   call    sub_4D4070    ; code_refs=[0x004D4070]
  0x004D6AEA    8d 54 24 18                                      lea     edx, [esp+284h+var_26C]
  0x004D6AEE    52                                               push    edx; int
  0x004D6AEF    68 08 4d 54 00                                   push    offset aSoundeffect; "soundeffect"    ; data_refs=[0x00544D08]
  0x004D6AF4    8b ce                                            mov     ecx, esi
  0x004D6AF6    e8 e5 d5 ff ff                                   call    sub_4D40E0    ; code_refs=[0x004D40E0]
  0x004D6AFB    85 c0                                            test    eax, eax
  0x004D6AFD    75 b1                                            jnz     short loc_4D6AB0    ; code_refs=[0x004D6AB0]

loc_4D6AFF: ; preds=loc_4D6A73,loc_4D6ADE succs=loc_4D6B12,loc_4D6B22
  0x004D6AFF    ba bb 01 00 00                                   mov     edx, 1BBh
  0x004D6B04    b9 bc 4b 54 00                                   mov     ecx, offset aShareclientsev_31; "..\\ShareClientSeverCode\\SoundEffect.c"...    ; data_refs=[0x00544BBC]
  0x004D6B09    e8 42 43 05 00                                   call    sub_52AE50    ; code_refs=[0x0052AE50]
  0x004D6B0E    85 f6                                            test    esi, esi
  0x004D6B10    74 10                                            jz      short loc_4D6B22    ; code_refs=[0x004D6B22]

loc_4D6B12: ; preds=loc_4D6AFF succs=loc_4D6B22
  0x004D6B12    8b ce                                            mov     ecx, esi
  0x004D6B14    e8 07 c9 ff ff                                   call    sub_4D3420    ; code_refs=[0x004D3420]
  0x004D6B19    56                                               push    esi
  0x004D6B1A    e8 91 4f 05 00                                   call    sub_52BAB0    ; code_refs=[0x0052BAB0]
  0x004D6B1F    83 c4 04                                         add     esp, 4

loc_4D6B22: ; preds=loc_4D69E0,loc_4D6AFF,loc_4D6B12 succs=loc_4D69E0,loc_4D6B3A
  0x004D6B22    8b 74 24 14                                      mov     esi, [esp+284h+hFindFile]
  0x004D6B26    8d 44 24 2c                                      lea     eax, [esp+284h+FindFileData]
  0x004D6B2A    50                                               push    eax; lpFindFileData
  0x004D6B2B    56                                               push    esi; hFindFile
  0x004D6B2C    ff 15 e0 c0 53 00                                call    ds:FindNextFileA    ; code_refs=[0x0053C0E0] data_refs=[0x0053C0E0]
  0x004D6B32    85 c0                                            test    eax, eax
  0x004D6B34    0f 85 a6 fe ff ff                                jnz     loc_4D69E0    ; code_refs=[0x004D69E0]

loc_4D6B3A: ; preds=loc_4D6970,loc_4D6B22 succs=loc_4D6B46,loc_4D6B59
  0x004D6B3A    56                                               push    esi; hFindFile
  0x004D6B3B    ff 15 dc c0 53 00                                call    ds:FindClose    ; code_refs=[0x0053C0DC] data_refs=[0x0053C0DC]
  0x004D6B41    83 3b 00                                         cmp     dword ptr [ebx], 0
  0x004D6B44    74 13                                            jz      short loc_4D6B59    ; code_refs=[0x004D6B59]

loc_4D6B46: ; preds=loc_4D6B3A succs=loc_4D6B4E,loc_4D6B59
  0x004D6B46    8b 43 08                                         mov     eax, [ebx+8]
  0x004D6B49    83 f8 01                                         cmp     eax, 1
  0x004D6B4C    7e 0b                                            jle     short loc_4D6B59    ; code_refs=[0x004D6B59]

loc_4D6B4E: ; preds=loc_4D6B46 succs=loc_4D6B59
  0x004D6B4E    48                                               dec     eax
  0x004D6B4F    50                                               push    eax
  0x004D6B50    6a 00                                            push    0
  0x004D6B52    8b cb                                            mov     ecx, ebx
  0x004D6B54    e8 f7 e6 ff ff                                   call    sub_4D5250    ; code_refs=[0x004D5250]

loc_4D6B59: ; preds=loc_4D6B3A,loc_4D6B46,loc_4D6B4E succs=
  0x004D6B59    b8 01 00 00 00                                   mov     eax, 1
  0x004D6B5E    8b 8c 24 78 02 00 00                             mov     ecx, [esp+284h+var_C]
  0x004D6B65    64 89 0d 00 00 00 00                             mov     large fs:0, ecx
  0x004D6B6C    59                                               pop     ecx
  0x004D6B6D    5f                                               pop     edi
  0x004D6B6E    5e                                               pop     esi
  0x004D6B6F    5b                                               pop     ebx
  0x004D6B70    8b 8c 24 60 02 00 00                             mov     ecx, [esp+274h+var_14]
  0x004D6B77    33 cc                                            xor     ecx, esp
  0x004D6B79    e8 22 79 05 00                                   call    sub_52E4A0    ; code_refs=[0x0052E4A0]
  0x004D6B7E    8b e5                                            mov     esp, ebp
  0x004D6B80    5d                                               pop     ebp
  0x004D6B81    c3                                               retn

loc_531D20:
  0x00531D20    8b 85 a4 fd ff ff                                mov     eax, [ebp+var_25C]
  0x00531D26    50                                               push    eax
  0x00531D27    e8 84 9d ff ff                                   call    sub_52BAB0    ; code_refs=[0x0052BAB0]
  0x00531D2C    59                                               pop     ecx
  0x00531D2D    c3                                               retn

loc_531D2E: ; preds= succs=loc_52E5C6
  0x00531D2E    8b 54 24 08                                      mov     edx, [esp-4+arg_4]
  0x00531D32    8d 82 8c fd ff ff                                lea     eax, [edx-274h]
  0x00531D38    8b 8a 88 fd ff ff                                mov     ecx, [edx-278h]
  0x00531D3E    33 c8                                            xor     ecx, eax
  0x00531D40    e8 5b c7 ff ff                                   call    sub_52E4A0    ; code_refs=[0x0052E4A0]
  0x00531D45    83 c0 0c                                         add     eax, 0Ch
  0x00531D48    8b 4a f8                                         mov     ecx, [edx-8]
  0x00531D4B    33 c8                                            xor     ecx, eax
  0x00531D4D    e8 4e c7 ff ff                                   call    sub_52E4A0    ; code_refs=[0x0052E4A0]
  0x00531D52    b8 70 93 55 00                                   mov     eax, offset stru_559370    ; data_refs=[0x00559370]
  0x00531D57    e9 6a c8 ff ff                                   jmp     __CxxFrameHandler3    ; code_refs=[0x0052E5C6]
; END_FUNC 0x004D6970 sub_4D6970


; ======================================================================================================================
; FUNC 0x004D8B30 sub_4D8B30 size=1173 segment=.text
; TYPE: int __stdcall(char *Str)
; STRINGS:
;   0x00564490 'N'
;   0x00544DCC '..\\ShareClientSeverCode\\SoundTrack.cpp'
;   0x00544E4C 'soundtrack'
;   0x00544CD4 'audio_file'
;   0x00544E44 'volume'
;   0x00544C5C 'flags'
;   0x00544E38 'ST_AUTOFREE'
;   0x00544E30 'samples'
;   0x00544E28 'sample'
;   0x00544E1C '%d %s %s'
;   0x00544E10 'patterns'
;   0x00544E08 'pattern'
;   0x00544DF8 'start_pattern'
;   0x00559420 '"'
; ----------------------------------------------------------------------------------------------------------------------

loc_4D8B30: ; preds= succs=loc_4D8BA3,loc_4D8BAE
  0x004D8B30    6a ff                                            push    0FFFFFFFFh
  0x004D8B32    68 fe 1d 53 00                                   push    offset SEH_498B30    ; data_refs=[0x00531DFE]
  0x004D8B37    64 a1 00 00 00 00                                mov     eax, large fs:0
  0x004D8B3D    50                                               push    eax
  0x004D8B3E    81 ec 20 01 00 00                                sub     esp, 120h
  0x004D8B44    a1 90 44 56 00                                   mov     eax, dword_564490    ; data_refs=[0x00564490]
  0x004D8B49    33 c4                                            xor     eax, esp
  0x004D8B4B    89 84 24 1c 01 00 00                             mov     [esp+12Ch+var_10], eax
  0x004D8B52    53                                               push    ebx
  0x004D8B53    55                                               push    ebp
  0x004D8B54    56                                               push    esi
  0x004D8B55    57                                               push    edi
  0x004D8B56    a1 90 44 56 00                                   mov     eax, dword_564490    ; data_refs=[0x00564490]
  0x004D8B5B    33 c4                                            xor     eax, esp
  0x004D8B5D    50                                               push    eax
  0x004D8B5E    8d 84 24 34 01 00 00                             lea     eax, [esp+140h+var_C]
  0x004D8B65    64 a3 00 00 00 00                                mov     large fs:0, eax
  0x004D8B6B    8b 9c 24 44 01 00 00                             mov     ebx, [esp+140h+Str]
  0x004D8B72    8b f9                                            mov     edi, ecx
  0x004D8B74    ba 44 03 00 00                                   mov     edx, 344h
  0x004D8B79    b9 cc 4d 54 00                                   mov     ecx, offset aShareclientsev_34; "..\\ShareClientSeverCode\\SoundTrack.cp"...    ; data_refs=[0x00544DCC]
  0x004D8B7E    e8 cd 22 05 00                                   call    sub_52AE50    ; code_refs=[0x0052AE50]
  0x004D8B83    68 20 04 00 00                                   push    420h; Size
  0x004D8B88    e8 a3 2f 05 00                                   call    sub_52BB30    ; code_refs=[0x0052BB30]
  0x004D8B8D    83 c4 04                                         add     esp, 4
  0x004D8B90    89 44 24 18                                      mov     [esp+140h+var_128], eax
  0x004D8B94    c7 84 24 3c 01 00 00 00 00 00 00                 mov     [esp+140h+var_4], 0
  0x004D8B9F    85 c0                                            test    eax, eax
  0x004D8BA1    74 0b                                            jz      short loc_4D8BAE    ; code_refs=[0x004D8BAE]

loc_4D8BA3: ; preds=loc_4D8B30 succs=loc_4D8BB0
  0x004D8BA3    8b c8                                            mov     ecx, eax
  0x004D8BA5    e8 66 a8 ff ff                                   call    sub_4D3410    ; code_refs=[0x004D3410]
  0x004D8BAA    8b f0                                            mov     esi, eax
  0x004D8BAC    eb 02                                            jmp     short loc_4D8BB0    ; code_refs=[0x004D8BB0]

loc_4D8BAE: ; preds=loc_4D8B30 succs=loc_4D8BB0
  0x004D8BAE    33 f6                                            xor     esi, esi

loc_4D8BB0: ; preds=loc_4D8BA3,loc_4D8BAE succs=loc_4D8BE0,loc_4D8F76
  0x004D8BB0    53                                               push    ebx; Str
  0x004D8BB1    8b ce                                            mov     ecx, esi
  0x004D8BB3    c7 84 24 40 01 00 00 ff ff ff ff                 mov     [esp+144h+var_4], 0FFFFFFFFh
  0x004D8BBE    e8 9d b5 ff ff                                   call    sub_4D4160    ; code_refs=[0x004D4160]
  0x004D8BC3    6a 01                                            push    1; int
  0x004D8BC5    6a 00                                            push    0; int
  0x004D8BC7    8d 44 24 2c                                      lea     eax, [esp+148h+var_11C]
  0x004D8BCB    50                                               push    eax; int
  0x004D8BCC    68 4c 4e 54 00                                   push    offset aSoundtrack; "soundtrack"    ; data_refs=[0x00544E4C]
  0x004D8BD1    8b ce                                            mov     ecx, esi
  0x004D8BD3    e8 b8 ab ff ff                                   call    sub_4D3790    ; code_refs=[0x004D3790]
  0x004D8BD8    85 c0                                            test    eax, eax
  0x004D8BDA    0f 84 96 03 00 00                                jz      loc_4D8F76    ; code_refs=[0x004D8F76]

loc_4D8BE0: ; preds=loc_4D8BB0 succs=loc_4D8BF9,loc_4D8F6F
  0x004D8BE0    8d 4c 24 24                                      lea     ecx, [esp+140h+var_11C]
  0x004D8BE4    51                                               push    ecx; int
  0x004D8BE5    68 d4 4c 54 00                                   push    offset aAudioFile; "audio_file"    ; data_refs=[0x00544CD4]
  0x004D8BEA    8b ce                                            mov     ecx, esi
  0x004D8BEC    e8 7f ad ff ff                                   call    sub_4D3970    ; code_refs=[0x004D3970]
  0x004D8BF1    85 c0                                            test    eax, eax
  0x004D8BF3    0f 84 76 03 00 00                                jz      loc_4D8F6F    ; code_refs=[0x004D8F6F]

loc_4D8BF9: ; preds=loc_4D8BE0 succs=loc_4D8C0F,loc_4D8F6F
  0x004D8BF9    8d 54 24 30                                      lea     edx, [esp+140h+String1]
  0x004D8BFD    52                                               push    edx
  0x004D8BFE    6a 00                                            push    0
  0x004D8C00    8b ce                                            mov     ecx, esi
  0x004D8C02    e8 b9 b0 ff ff                                   call    sub_4D3CC0    ; code_refs=[0x004D3CC0]
  0x004D8C07    85 c0                                            test    eax, eax
  0x004D8C09    0f 84 60 03 00 00                                jz      loc_4D8F6F    ; code_refs=[0x004D8F6F]

loc_4D8C0F: ; preds=loc_4D8BF9 succs=loc_4D8C25
  0x004D8C0F    ba 4e 03 00 00                                   mov     edx, 34Eh
  0x004D8C14    b9 cc 4d 54 00                                   mov     ecx, offset aShareclientsev_34; "..\\ShareClientSeverCode\\SoundTrack.cp"...    ; data_refs=[0x00544DCC]
  0x004D8C19    e8 32 22 05 00                                   call    sub_52AE50    ; code_refs=[0x0052AE50]
  0x004D8C1E    8d 44 24 30                                      lea     eax, [esp+140h+String1]
  0x004D8C22    8d 50 01                                         lea     edx, [eax+1]

loc_4D8C25: ; preds=loc_4D8C0F,loc_4D8C25 succs=loc_4D8C2C,loc_4D8C25
  0x004D8C25    8a 08                                            mov     cl, [eax]
  0x004D8C27    40                                               inc     eax
  0x004D8C28    84 c9                                            test    cl, cl
  0x004D8C2A    75 f9                                            jnz     short loc_4D8C25    ; code_refs=[0x004D8C25]

loc_4D8C2C: ; preds=loc_4D8C25 succs=loc_4D8C41
  0x004D8C2C    2b c2                                            sub     eax, edx
  0x004D8C2E    40                                               inc     eax
  0x004D8C2F    50                                               push    eax; Size
  0x004D8C30    e8 fb 2e 05 00                                   call    sub_52BB30    ; code_refs=[0x0052BB30]
  0x004D8C35    83 c4 04                                         add     esp, 4
  0x004D8C38    89 47 38                                         mov     [edi+38h], eax
  0x004D8C3B    8d 4c 24 30                                      lea     ecx, [esp+140h+String1]
  0x004D8C3F    8b d0                                            mov     edx, eax

loc_4D8C41: ; preds=loc_4D8C2C,loc_4D8C41 succs=loc_4D8C4B,loc_4D8C41
  0x004D8C41    8a 01                                            mov     al, [ecx]
  0x004D8C43    88 02                                            mov     [edx], al
  0x004D8C45    41                                               inc     ecx
  0x004D8C46    42                                               inc     edx
  0x004D8C47    84 c0                                            test    al, al
  0x004D8C49    75 f6                                            jnz     short loc_4D8C41    ; code_refs=[0x004D8C41]

loc_4D8C4B: ; preds=loc_4D8C41 succs=loc_4D8C60,loc_4D8C71
  0x004D8C4B    8d 44 24 24                                      lea     eax, [esp+140h+var_11C]
  0x004D8C4F    50                                               push    eax; int
  0x004D8C50    68 44 4e 54 00                                   push    offset aVolume; "volume"    ; data_refs=[0x00544E44]
  0x004D8C55    8b ce                                            mov     ecx, esi
  0x004D8C57    e8 14 ad ff ff                                   call    sub_4D3970    ; code_refs=[0x004D3970]
  0x004D8C5C    85 c0                                            test    eax, eax
  0x004D8C5E    74 11                                            jz      short loc_4D8C71    ; code_refs=[0x004D8C71]

loc_4D8C60: ; preds=loc_4D8C4B succs=loc_4D8C71
  0x004D8C60    6a 00                                            push    0
  0x004D8C62    8b ce                                            mov     ecx, esi
  0x004D8C64    e8 77 ae ff ff                                   call    sub_4D3AE0    ; code_refs=[0x004D3AE0]
  0x004D8C69    e8 62 59 05 00                                   call    __ftol2_sse    ; code_refs=[0x0052E5D0]
  0x004D8C6E    89 47 44                                         mov     [edi+44h], eax

loc_4D8C71: ; preds=loc_4D8C4B,loc_4D8C60 succs=loc_4D8C86,loc_4D8CC8
  0x004D8C71    8d 4c 24 24                                      lea     ecx, [esp+140h+var_11C]
  0x004D8C75    51                                               push    ecx; int
  0x004D8C76    68 5c 4c 54 00                                   push    offset aFlags; "flags"    ; data_refs=[0x00544C5C]
  0x004D8C7B    8b ce                                            mov     ecx, esi
  0x004D8C7D    e8 ee ac ff ff                                   call    sub_4D3970    ; code_refs=[0x004D3970]
  0x004D8C82    85 c0                                            test    eax, eax
  0x004D8C84    74 42                                            jz      short loc_4D8CC8    ; code_refs=[0x004D8CC8]

loc_4D8C86: ; preds=loc_4D8C71 succs=loc_4D8C95,loc_4D8CC8
  0x004D8C86    8b ce                                            mov     ecx, esi
  0x004D8C88    e8 73 b3 ff ff                                   call    sub_4D4000    ; code_refs=[0x004D4000]
  0x004D8C8D    8b e8                                            mov     ebp, eax
  0x004D8C8F    33 db                                            xor     ebx, ebx
  0x004D8C91    85 ed                                            test    ebp, ebp
  0x004D8C93    7e 33                                            jle     short loc_4D8CC8    ; code_refs=[0x004D8CC8]

loc_4D8C95: ; preds=loc_4D8C86,loc_4D8CC1 succs=loc_4D8CA6,loc_4D8CC1
  0x004D8C95    8d 54 24 30                                      lea     edx, [esp+140h+String1]
  0x004D8C99    52                                               push    edx
  0x004D8C9A    53                                               push    ebx
  0x004D8C9B    8b ce                                            mov     ecx, esi
  0x004D8C9D    e8 7e af ff ff                                   call    sub_4D3C20    ; code_refs=[0x004D3C20]
  0x004D8CA2    85 c0                                            test    eax, eax
  0x004D8CA4    74 1b                                            jz      short loc_4D8CC1    ; code_refs=[0x004D8CC1]

loc_4D8CA6: ; preds=loc_4D8C95 succs=loc_4D8CBD,loc_4D8CC1
  0x004D8CA6    8d 44 24 30                                      lea     eax, [esp+140h+String1]
  0x004D8CAA    68 38 4e 54 00                                   push    offset aStAutofree; "ST_AUTOFREE"    ; data_refs=[0x00544E38]
  0x004D8CAF    50                                               push    eax; String1
  0x004D8CB0    ff 15 b0 c3 53 00                                call    ds:_stricmp    ; code_refs=[0x0053C3B0] data_refs=[0x0053C3B0]
  0x004D8CB6    83 c4 08                                         add     esp, 8
  0x004D8CB9    85 c0                                            test    eax, eax
  0x004D8CBB    75 04                                            jnz     short loc_4D8CC1    ; code_refs=[0x004D8CC1]

loc_4D8CBD: ; preds=loc_4D8CA6 succs=loc_4D8CC1
  0x004D8CBD    83 4f 4c 01                                      or      dword ptr [edi+4Ch], 1

loc_4D8CC1: ; preds=loc_4D8C95,loc_4D8CA6,loc_4D8CBD succs=loc_4D8C95,loc_4D8CC8
  0x004D8CC1    83 c3 02                                         add     ebx, 2
  0x004D8CC4    3b dd                                            cmp     ebx, ebp
  0x004D8CC6    7c cd                                            jl      short loc_4D8C95    ; code_refs=[0x004D8C95]

loc_4D8CC8: ; preds=loc_4D8C71,loc_4D8C86,loc_4D8CC1 succs=loc_4D8CE8,loc_4D8F68
  0x004D8CC8    6a 01                                            push    1; int
  0x004D8CCA    8d 4c 24 28                                      lea     ecx, [esp+144h+var_11C]
  0x004D8CCE    51                                               push    ecx; int
  0x004D8CCF    8d 54 24 24                                      lea     edx, [esp+148h+var_124]
  0x004D8CD3    52                                               push    edx; int
  0x004D8CD4    68 30 4e 54 00                                   push    offset aSamples; "samples"    ; data_refs=[0x00544E30]
  0x004D8CD9    8b ce                                            mov     ecx, esi
  0x004D8CDB    e8 b0 aa ff ff                                   call    sub_4D3790    ; code_refs=[0x004D3790]
  0x004D8CE0    85 c0                                            test    eax, eax
  0x004D8CE2    0f 84 80 02 00 00                                jz      loc_4D8F68    ; code_refs=[0x004D8F68]

loc_4D8CE8: ; preds=loc_4D8CC8 succs=loc_4D8D06,loc_4D8D1B
  0x004D8CE8    8d 44 24 1c                                      lea     eax, [esp+140h+var_124]
  0x004D8CEC    50                                               push    eax
  0x004D8CED    8b ce                                            mov     ecx, esi
  0x004D8CEF    33 db                                            xor     ebx, ebx
  0x004D8CF1    e8 7a b0 ff ff                                   call    sub_4D3D70    ; code_refs=[0x004D3D70]
  0x004D8CF6    68 28 4e 54 00                                   push    offset aSample; "sample"    ; data_refs=[0x00544E28]
  0x004D8CFB    8b ce                                            mov     ecx, esi
  0x004D8CFD    e8 de b0 ff ff                                   call    sub_4D3DE0    ; code_refs=[0x004D3DE0]
  0x004D8D02    85 c0                                            test    eax, eax
  0x004D8D04    74 15                                            jz      short loc_4D8D1B    ; code_refs=[0x004D8D1B]

loc_4D8D06: ; preds=loc_4D8CE8,loc_4D8D06 succs=loc_4D8D17,loc_4D8D06
  0x004D8D06    68 28 4e 54 00                                   push    offset aSample; "sample"    ; data_refs=[0x00544E28]
  0x004D8D0B    8b ce                                            mov     ecx, esi
  0x004D8D0D    43                                               inc     ebx
  0x004D8D0E    e8 cd b0 ff ff                                   call    sub_4D3DE0    ; code_refs=[0x004D3DE0]
  0x004D8D13    85 c0                                            test    eax, eax
  0x004D8D15    75 ef                                            jnz     short loc_4D8D06    ; code_refs=[0x004D8D06]

loc_4D8D17: ; preds=loc_4D8D06 succs=loc_4D8D1B,loc_4D8D25
  0x004D8D17    85 db                                            test    ebx, ebx
  0x004D8D19    75 0a                                            jnz     short loc_4D8D25    ; code_refs=[0x004D8D25]

loc_4D8D1B: ; preds=loc_4D8CE8,loc_4D8D17 succs=loc_4D8F7B
  0x004D8D1B    ba 76 03 00 00                                   mov     edx, 376h
  0x004D8D20    e9 56 02 00 00                                   jmp     loc_4D8F7B    ; code_refs=[0x004D8F7B]

loc_4D8D25: ; preds=loc_4D8D17 succs=loc_4D8D4D,loc_4D8DC6
  0x004D8D25    53                                               push    ebx
  0x004D8D26    8b cf                                            mov     ecx, edi
  0x004D8D28    e8 53 f1 ff ff                                   call    sub_4D7E80    ; code_refs=[0x004D7E80]
  0x004D8D2D    8d 4c 24 1c                                      lea     ecx, [esp+140h+var_124]
  0x004D8D31    51                                               push    ecx
  0x004D8D32    8b ce                                            mov     ecx, esi
  0x004D8D34    e8 37 b0 ff ff                                   call    sub_4D3D70    ; code_refs=[0x004D3D70]
  0x004D8D39    68 28 4e 54 00                                   push    offset aSample; "sample"    ; data_refs=[0x00544E28]
  0x004D8D3E    8b ce                                            mov     ecx, esi
  0x004D8D40    e8 9b b0 ff ff                                   call    sub_4D3DE0    ; code_refs=[0x004D3DE0]
  0x004D8D45    85 c0                                            test    eax, eax
  0x004D8D47    0f 84 79 00 00 00                                jz      loc_4D8DC6    ; code_refs=[0x004D8DC6]

loc_4D8D4D: ; preds=loc_4D8D25 succs=loc_4D8D50
  0x004D8D4D    8d 5e 10                                         lea     ebx, [esi+10h]

loc_4D8D50: ; preds=loc_4D8D4D,loc_4D8D50 succs=loc_4D8DC6,loc_4D8D50
  0x004D8D50    8d 94 24 d0 00 00 00                             lea     edx, [esp+140h+var_70]
  0x004D8D57    52                                               push    edx
  0x004D8D58    8d 44 24 34                                      lea     eax, [esp+144h+String1]
  0x004D8D5C    50                                               push    eax
  0x004D8D5D    8d 4c 24 34                                      lea     ecx, [esp+148h+var_114]
  0x004D8D61    51                                               push    ecx
  0x004D8D62    68 1c 4e 54 00                                   push    offset aDSS; "%d %s %s"    ; data_refs=[0x00544E1C]
  0x004D8D67    53                                               push    ebx; Buffer
  0x004D8D68    c7 44 24 40 00 00 00 00                          mov     [esp+154h+var_114], 0
  0x004D8D70    ff 15 dc c3 53 00                                call    ds:sscanf    ; code_refs=[0x0053C3DC] data_refs=[0x0053C3DC]
  0x004D8D76    8b 6c 24 40                                      mov     ebp, [esp+154h+var_114]
  0x004D8D7A    83 c4 14                                         add     esp, 14h
  0x004D8D7D    8d 54 24 30                                      lea     edx, [esp+140h+String1]
  0x004D8D81    52                                               push    edx
  0x004D8D82    8b cf                                            mov     ecx, edi
  0x004D8D84    e8 77 f1 ff ff                                   call    sub_4D7F00    ; code_refs=[0x004D7F00]
  0x004D8D89    d9 5c 24 14                                      fstp    [esp+140h+var_12C]
  0x004D8D8D    8d 84 24 d0 00 00 00                             lea     eax, [esp+140h+var_70]
  0x004D8D94    50                                               push    eax
  0x004D8D95    8b cf                                            mov     ecx, edi
  0x004D8D97    e8 64 f1 ff ff                                   call    sub_4D7F00    ; code_refs=[0x004D7F00]
  0x004D8D9C    d9 5c 24 18                                      fstp    [esp+140h+var_128]
  0x004D8DA0    8b 4f 04                                         mov     ecx, [edi+4]
  0x004D8DA3    d9 44 24 14                                      fld     [esp+140h+var_12C]
  0x004D8DA7    d9 5c e9 f8                                      fstp    dword ptr [ecx+ebp*8-8]
  0x004D8DAB    8b 57 04                                         mov     edx, [edi+4]
  0x004D8DAE    d9 44 24 18                                      fld     [esp+140h+var_128]
  0x004D8DB2    68 28 4e 54 00                                   push    offset aSample; "sample"    ; data_refs=[0x00544E28]
  0x004D8DB7    8b ce                                            mov     ecx, esi
  0x004D8DB9    d9 5c ea fc                                      fstp    dword ptr [edx+ebp*8-4]
  0x004D8DBD    e8 1e b0 ff ff                                   call    sub_4D3DE0    ; code_refs=[0x004D3DE0]
  0x004D8DC2    85 c0                                            test    eax, eax
  0x004D8DC4    75 8a                                            jnz     short loc_4D8D50    ; code_refs=[0x004D8D50]

loc_4D8DC6: ; preds=loc_4D8D25,loc_4D8D50 succs=loc_4D8DED,loc_4D8F61
  0x004D8DC6    8b ce                                            mov     ecx, esi
  0x004D8DC8    e8 03 b0 ff ff                                   call    sub_4D3DD0    ; code_refs=[0x004D3DD0]
  0x004D8DCD    6a 01                                            push    1; int
  0x004D8DCF    8d 44 24 28                                      lea     eax, [esp+144h+var_11C]
  0x004D8DD3    50                                               push    eax; int
  0x004D8DD4    8d 4c 24 24                                      lea     ecx, [esp+148h+var_124]
  0x004D8DD8    51                                               push    ecx; int
  0x004D8DD9    68 10 4e 54 00                                   push    offset aPatterns; "patterns"    ; data_refs=[0x00544E10]
  0x004D8DDE    8b ce                                            mov     ecx, esi
  0x004D8DE0    e8 ab a9 ff ff                                   call    sub_4D3790    ; code_refs=[0x004D3790]
  0x004D8DE5    85 c0                                            test    eax, eax
  0x004D8DE7    0f 84 74 01 00 00                                jz      loc_4D8F61    ; code_refs=[0x004D8F61]

loc_4D8DED: ; preds=loc_4D8DC6 succs=loc_4D8E0B,loc_4D8E25
  0x004D8DED    8d 54 24 1c                                      lea     edx, [esp+140h+var_124]
  0x004D8DF1    52                                               push    edx
  0x004D8DF2    8b ce                                            mov     ecx, esi
  0x004D8DF4    33 db                                            xor     ebx, ebx
  0x004D8DF6    e8 75 af ff ff                                   call    sub_4D3D70    ; code_refs=[0x004D3D70]
  0x004D8DFB    68 08 4e 54 00                                   push    offset aPattern; "pattern"    ; data_refs=[0x00544E08]
  0x004D8E00    8b ce                                            mov     ecx, esi
  0x004D8E02    e8 d9 af ff ff                                   call    sub_4D3DE0    ; code_refs=[0x004D3DE0]
  0x004D8E07    85 c0                                            test    eax, eax
  0x004D8E09    74 1a                                            jz      short loc_4D8E25    ; code_refs=[0x004D8E25]

loc_4D8E0B: ; preds=loc_4D8DED succs=loc_4D8E10
  0x004D8E0B    eb 03                                            jmp     short loc_4D8E10    ; code_refs=[0x004D8E10]

loc_4D8E10: ; preds=loc_4D8E0B,loc_4D8E10 succs=loc_4D8E21,loc_4D8E10
  0x004D8E10    68 08 4e 54 00                                   push    offset aPattern; "pattern"    ; data_refs=[0x00544E08]
  0x004D8E15    8b ce                                            mov     ecx, esi
  0x004D8E17    43                                               inc     ebx
  0x004D8E18    e8 c3 af ff ff                                   call    sub_4D3DE0    ; code_refs=[0x004D3DE0]
  0x004D8E1D    85 c0                                            test    eax, eax
  0x004D8E1F    75 ef                                            jnz     short loc_4D8E10    ; code_refs=[0x004D8E10]

loc_4D8E21: ; preds=loc_4D8E10 succs=loc_4D8E25,loc_4D8E2F
  0x004D8E21    85 db                                            test    ebx, ebx
  0x004D8E23    75 0a                                            jnz     short loc_4D8E2F    ; code_refs=[0x004D8E2F]

loc_4D8E25: ; preds=loc_4D8DED,loc_4D8E21 succs=loc_4D8F7B
  0x004D8E25    ba a0 03 00 00                                   mov     edx, 3A0h
  0x004D8E2A    e9 4c 01 00 00                                   jmp     loc_4D8F7B    ; code_refs=[0x004D8F7B]

loc_4D8E2F: ; preds=loc_4D8E21 succs=loc_4D8E57,loc_4D8EF6
  0x004D8E2F    53                                               push    ebx
  0x004D8E30    8b cf                                            mov     ecx, edi
  0x004D8E32    e8 09 fc ff ff                                   call    sub_4D8A40    ; code_refs=[0x004D8A40]
  0x004D8E37    8d 44 24 1c                                      lea     eax, [esp+140h+var_124]
  0x004D8E3B    50                                               push    eax
  0x004D8E3C    8b ce                                            mov     ecx, esi
  0x004D8E3E    e8 2d af ff ff                                   call    sub_4D3D70    ; code_refs=[0x004D3D70]
  0x004D8E43    68 08 4e 54 00                                   push    offset aPattern; "pattern"    ; data_refs=[0x00544E08]
  0x004D8E48    8b ce                                            mov     ecx, esi
  0x004D8E4A    e8 91 af ff ff                                   call    sub_4D3DE0    ; code_refs=[0x004D3DE0]
  0x004D8E4F    85 c0                                            test    eax, eax
  0x004D8E51    0f 84 9f 00 00 00                                jz      loc_4D8EF6    ; code_refs=[0x004D8EF6]

loc_4D8E57: ; preds=loc_4D8E2F,loc_4D8EE2 succs=loc_4D8E68,loc_4D8EE2
  0x004D8E57    8b ce                                            mov     ecx, esi
  0x004D8E59    e8 a2 b1 ff ff                                   call    sub_4D4000    ; code_refs=[0x004D4000]
  0x004D8E5E    8b e8                                            mov     ebp, eax
  0x004D8E60    85 ed                                            test    ebp, ebp
  0x004D8E62    0f 8e 7a 00 00 00                                jle     loc_4D8EE2    ; code_refs=[0x004D8EE2]

loc_4D8E68: ; preds=loc_4D8E57 succs=loc_4D8E89,loc_4D8E92
  0x004D8E68    6a 00                                            push    0
  0x004D8E6A    8b ce                                            mov     ecx, esi
  0x004D8E6C    e8 0f ad ff ff                                   call    sub_4D3B80    ; code_refs=[0x004D3B80]
  0x004D8E71    8b 57 24                                         mov     edx, [edi+24h]
  0x004D8E74    8d 0c 80                                         lea     ecx, [eax+eax*4]
  0x004D8E77    8d 4c 8a ec                                      lea     ecx, [edx+ecx*4-14h]
  0x004D8E7B    89 4c 24 18                                      mov     [esp+140h+var_128], ecx
  0x004D8E7F    b8 01 00 00 00                                   mov     eax, 1
  0x004D8E84    83 fd 02                                         cmp     ebp, 2
  0x004D8E87    7e 09                                            jle     short loc_4D8E92    ; code_refs=[0x004D8E92]

loc_4D8E89: ; preds=loc_4D8E68 succs=loc_4D8E92
  0x004D8E89    8d 45 ff                                         lea     eax, [ebp-1]
  0x004D8E8C    99                                               cdq
  0x004D8E8D    2b c2                                            sub     eax, edx
  0x004D8E8F    d1 f8                                            sar     eax, 1
  0x004D8E91    40                                               inc     eax

loc_4D8E92: ; preds=loc_4D8E68,loc_4D8E89 succs=loc_4D8EA9,loc_4D8EE2
  0x004D8E92    50                                               push    eax
  0x004D8E93    e8 f8 f6 ff ff                                   call    sub_4D8590    ; code_refs=[0x004D8590]
  0x004D8E98    bb 01 00 00 00                                   mov     ebx, 1
  0x004D8E9D    c7 44 24 14 00 00 00 00                          mov     [esp+140h+var_12C], 0
  0x004D8EA5    3b eb                                            cmp     ebp, ebx
  0x004D8EA7    7e 39                                            jle     short loc_4D8EE2    ; code_refs=[0x004D8EE2]

loc_4D8EA9: ; preds=loc_4D8E92 succs=loc_4D8EB0
  0x004D8EA9    8d a4 24 00 00 00 00                             lea     esp, [esp+0]

loc_4D8EB0: ; preds=loc_4D8EA9,loc_4D8EDB succs=loc_4D8EC1,loc_4D8EDB
  0x004D8EB0    8d 44 24 30                                      lea     eax, [esp+140h+String1]
  0x004D8EB4    50                                               push    eax
  0x004D8EB5    53                                               push    ebx
  0x004D8EB6    8b ce                                            mov     ecx, esi
  0x004D8EB8    e8 63 ad ff ff                                   call    sub_4D3C20    ; code_refs=[0x004D3C20]
  0x004D8EBD    85 c0                                            test    eax, eax
  0x004D8EBF    74 1a                                            jz      short loc_4D8EDB    ; code_refs=[0x004D8EDB]

loc_4D8EC1: ; preds=loc_4D8EB0 succs=loc_4D8EDB
  0x004D8EC1    8b 54 24 14                                      mov     edx, [esp+140h+var_12C]
  0x004D8EC5    8b 44 24 18                                      mov     eax, [esp+140h+var_128]
  0x004D8EC9    8d 4c 24 30                                      lea     ecx, [esp+140h+String1]
  0x004D8ECD    51                                               push    ecx
  0x004D8ECE    52                                               push    edx
  0x004D8ECF    50                                               push    eax
  0x004D8ED0    8b cf                                            mov     ecx, edi
  0x004D8ED2    e8 f9 f0 ff ff                                   call    sub_4D7FD0    ; code_refs=[0x004D7FD0]
  0x004D8ED7    ff 44 24 14                                      inc     [esp+140h+var_12C]

loc_4D8EDB: ; preds=loc_4D8EB0,loc_4D8EC1 succs=loc_4D8EB0,loc_4D8EE2
  0x004D8EDB    83 c3 02                                         add     ebx, 2
  0x004D8EDE    3b dd                                            cmp     ebx, ebp
  0x004D8EE0    7c ce                                            jl      short loc_4D8EB0    ; code_refs=[0x004D8EB0]

loc_4D8EE2: ; preds=loc_4D8E57,loc_4D8E92,loc_4D8EDB succs=loc_4D8E57,loc_4D8EF6
  0x004D8EE2    68 08 4e 54 00                                   push    offset aPattern; "pattern"    ; data_refs=[0x00544E08]
  0x004D8EE7    8b ce                                            mov     ecx, esi
  0x004D8EE9    e8 f2 ae ff ff                                   call    sub_4D3DE0    ; code_refs=[0x004D3DE0]
  0x004D8EEE    85 c0                                            test    eax, eax
  0x004D8EF0    0f 85 61 ff ff ff                                jnz     loc_4D8E57    ; code_refs=[0x004D8E57]

loc_4D8EF6: ; preds=loc_4D8E2F,loc_4D8EE2 succs=loc_4D8F12,loc_4D8F21
  0x004D8EF6    8b ce                                            mov     ecx, esi
  0x004D8EF8    e8 d3 ae ff ff                                   call    sub_4D3DD0    ; code_refs=[0x004D3DD0]
  0x004D8EFD    8d 4c 24 1c                                      lea     ecx, [esp+140h+var_124]
  0x004D8F01    51                                               push    ecx; int
  0x004D8F02    68 f8 4d 54 00                                   push    offset aStartPattern; "start_pattern"    ; data_refs=[0x00544DF8]
  0x004D8F07    8b ce                                            mov     ecx, esi
  0x004D8F09    e8 62 aa ff ff                                   call    sub_4D3970    ; code_refs=[0x004D3970]
  0x004D8F0E    85 c0                                            test    eax, eax
  0x004D8F10    74 0f                                            jz      short loc_4D8F21    ; code_refs=[0x004D8F21]

loc_4D8F12: ; preds=loc_4D8EF6 succs=loc_4D8F28
  0x004D8F12    6a 00                                            push    0
  0x004D8F14    8b ce                                            mov     ecx, esi
  0x004D8F16    e8 65 ac ff ff                                   call    sub_4D3B80    ; code_refs=[0x004D3B80]
  0x004D8F1B    48                                               dec     eax
  0x004D8F1C    89 47 30                                         mov     [edi+30h], eax
  0x004D8F1F    eb 07                                            jmp     short loc_4D8F28    ; code_refs=[0x004D8F28]

loc_4D8F21: ; preds=loc_4D8EF6 succs=loc_4D8F28
  0x004D8F21    c7 47 30 00 00 00 00                             mov     dword ptr [edi+30h], 0

loc_4D8F28: ; preds=loc_4D8F12,loc_4D8F21 succs=loc_4D8F35,loc_4D8F3C
  0x004D8F28    8b 57 30                                         mov     edx, [edi+30h]
  0x004D8F2B    b9 cc 4d 54 00                                   mov     ecx, offset aShareclientsev_34; "..\\ShareClientSeverCode\\SoundTrack.cp"...    ; data_refs=[0x00544DCC]
  0x004D8F30    3b 57 28                                         cmp     edx, [edi+28h]
  0x004D8F33    72 07                                            jb      short loc_4D8F3C    ; code_refs=[0x004D8F3C]

loc_4D8F35: ; preds=loc_4D8F28 succs=loc_4D8F80
  0x004D8F35    ba d0 03 00 00                                   mov     edx, 3D0h
  0x004D8F3A    eb 44                                            jmp     short loc_4D8F80    ; code_refs=[0x004D8F80]

loc_4D8F3C: ; preds=loc_4D8F28 succs=loc_4D8F4A,loc_4D8F5A
  0x004D8F3C    ba e6 03 00 00                                   mov     edx, 3E6h
  0x004D8F41    e8 0a 1f 05 00                                   call    sub_52AE50    ; code_refs=[0x0052AE50]
  0x004D8F46    85 f6                                            test    esi, esi
  0x004D8F48    74 10                                            jz      short loc_4D8F5A    ; code_refs=[0x004D8F5A]

loc_4D8F4A: ; preds=loc_4D8F3C succs=loc_4D8F5A
  0x004D8F4A    8b ce                                            mov     ecx, esi
  0x004D8F4C    e8 cf a4 ff ff                                   call    sub_4D3420    ; code_refs=[0x004D3420]
  0x004D8F51    56                                               push    esi
  0x004D8F52    e8 59 2b 05 00                                   call    sub_52BAB0    ; code_refs=[0x0052BAB0]
  0x004D8F57    83 c4 04                                         add     esp, 4

loc_4D8F5A: ; preds=loc_4D8F3C,loc_4D8F4A succs=loc_4D8F9B
  0x004D8F5A    b8 01 00 00 00                                   mov     eax, 1
  0x004D8F5F    eb 3a                                            jmp     short loc_4D8F9B    ; code_refs=[0x004D8F9B]

loc_4D8F61: ; preds=loc_4D8DC6 succs=loc_4D8F7B
  0x004D8F61    ba d9 03 00 00                                   mov     edx, 3D9h
  0x004D8F66    eb 13                                            jmp     short loc_4D8F7B    ; code_refs=[0x004D8F7B]

loc_4D8F68: ; preds=loc_4D8CC8 succs=loc_4D8F7B
  0x004D8F68    ba 8f 03 00 00                                   mov     edx, 38Fh
  0x004D8F6D    eb 0c                                            jmp     short loc_4D8F7B    ; code_refs=[0x004D8F7B]

loc_4D8F6F: ; preds=loc_4D8BE0,loc_4D8BF9 succs=loc_4D8F7B
  0x004D8F6F    ba 56 03 00 00                                   mov     edx, 356h
  0x004D8F74    eb 05                                            jmp     short loc_4D8F7B    ; code_refs=[0x004D8F7B]

loc_4D8F76: ; preds=loc_4D8BB0 succs=loc_4D8F7B
  0x004D8F76    ba e2 03 00 00                                   mov     edx, 3E2h

loc_4D8F7B: ; preds=loc_4D8D1B,loc_4D8E25,loc_4D8F61,loc_4D8F68,loc_4D8F6F,loc_4D8F76 succs=loc_4D8F80
  0x004D8F7B    b9 cc 4d 54 00                                   mov     ecx, offset aShareclientsev_34; "..\\ShareClientSeverCode\\SoundTrack.cp"...    ; data_refs=[0x00544DCC]

loc_4D8F80: ; preds=loc_4D8F35,loc_4D8F7B succs=loc_4D8F89,loc_4D8F99
  0x004D8F80    e8 cb 1e 05 00                                   call    sub_52AE50    ; code_refs=[0x0052AE50]
  0x004D8F85    85 f6                                            test    esi, esi
  0x004D8F87    74 10                                            jz      short loc_4D8F99    ; code_refs=[0x004D8F99]

loc_4D8F89: ; preds=loc_4D8F80 succs=loc_4D8F99
  0x004D8F89    8b ce                                            mov     ecx, esi
  0x004D8F8B    e8 90 a4 ff ff                                   call    sub_4D3420    ; code_refs=[0x004D3420]
  0x004D8F90    56                                               push    esi
  0x004D8F91    e8 1a 2b 05 00                                   call    sub_52BAB0    ; code_refs=[0x0052BAB0]
  0x004D8F96    83 c4 04                                         add     esp, 4

loc_4D8F99: ; preds=loc_4D8F80,loc_4D8F89 succs=loc_4D8F9B
  0x004D8F99    33 c0                                            xor     eax, eax

loc_4D8F9B: ; preds=loc_4D8F5A,loc_4D8F99 succs=
  0x004D8F9B    8b 8c 24 34 01 00 00                             mov     ecx, [esp+140h+var_C]
  0x004D8FA2    64 89 0d 00 00 00 00                             mov     large fs:0, ecx
  0x004D8FA9    59                                               pop     ecx
  0x004D8FAA    5f                                               pop     edi
  0x004D8FAB    5e                                               pop     esi
  0x004D8FAC    5d                                               pop     ebp
  0x004D8FAD    5b                                               pop     ebx
  0x004D8FAE    8b 8c 24 1c 01 00 00                             mov     ecx, [esp+12Ch+var_10]
  0x004D8FB5    33 cc                                            xor     ecx, esp
  0x004D8FB7    e8 e4 54 05 00                                   call    sub_52E4A0    ; code_refs=[0x0052E4A0]
  0x004D8FBC    81 c4 2c 01 00 00                                add     esp, 12Ch
  0x004D8FC2    c2 04 00                                         retn    4

loc_531DF0:
  0x00531DF0    8b 85 d8 fe ff ff                                mov     eax, [ebp-128h]
  0x00531DF6    50                                               push    eax
  0x00531DF7    e8 b4 9c ff ff                                   call    sub_52BAB0    ; code_refs=[0x0052BAB0]
  0x00531DFC    59                                               pop     ecx
  0x00531DFD    c3                                               retn

loc_531DFE: ; preds= succs=loc_52E5C6
  0x00531DFE    8b 54 24 08                                      mov     edx, [esp+arg_4]
  0x00531E02    8d 82 d0 fe ff ff                                lea     eax, [edx-130h]
  0x00531E08    8b 8a cc fe ff ff                                mov     ecx, [edx-134h]
  0x00531E0E    33 c8                                            xor     ecx, eax
  0x00531E10    e8 8b c6 ff ff                                   call    sub_52E4A0    ; code_refs=[0x0052E4A0]
  0x00531E15    83 c0 10                                         add     eax, 10h
  0x00531E18    8b 4a fc                                         mov     ecx, [edx-4]
  0x00531E1B    33 c8                                            xor     ecx, eax
  0x00531E1D    e8 7e c6 ff ff                                   call    sub_52E4A0    ; code_refs=[0x0052E4A0]
  0x00531E22    b8 20 94 55 00                                   mov     eax, offset stru_559420    ; data_refs=[0x00559420]
  0x00531E27    e9 9a c7 ff ff                                   jmp     __CxxFrameHandler3    ; code_refs=[0x0052E5C6]
; END_FUNC 0x004D8B30 sub_4D8B30


; ======================================================================================================================
; FUNC 0x004D9300 sub_4D9300 size=551 segment=.text
; STRINGS:
;   0x00564490 'N'
;   0x00544ECC 'scan_paths_recursive: MAX_PATH_NUM exceeded'
;   0x00544EF8 '*.dds'
;   0x00544EFC 's'
;   0x00544EB0 'too long texture name'
;   0x00544E88 '..\\ShareClientSeverCode\\texturesset.cpp'
; ----------------------------------------------------------------------------------------------------------------------

loc_4D9300: ; preds= succs=loc_4D932B,loc_4D933B
  0x004D9300    81 ec b8 01 00 00                                sub     esp, 1B8h
  0x004D9306    a1 90 44 56 00                                   mov     eax, dword_564490    ; data_refs=[0x00564490]
  0x004D930B    33 c4                                            xor     eax, esp
  0x004D930D    89 84 24 b4 01 00 00                             mov     [esp+1B8h+var_4], eax
  0x004D9314    53                                               push    ebx
  0x004D9315    56                                               push    esi
  0x004D9316    57                                               push    edi
  0x004D9317    8b 3d e0 9c b5 04                                mov     edi, dword_4B59CE0    ; data_refs=[0x04B59CE0]
  0x004D931D    8b f1                                            mov     esi, ecx
  0x004D931F    89 7c 24 10                                      mov     [esp+1C4h+var_1B4], edi
  0x004D9323    81 ff f4 01 00 00                                cmp     edi, 1F4h
  0x004D9329    7c 10                                            jl      short loc_4D933B    ; code_refs=[0x004D933B]

loc_4D932B: ; preds=loc_4D9300 succs=
  0x004D932B    b9 cc 4e 54 00                                   mov     ecx, offset aScanPathsRecur; "scan_paths_recursive: MAX_PATH_NUM exce"...    ; data_refs=[0x00544ECC]
  0x004D9330    e8 fb 04 fc ff                                   call    sub_499830    ; code_refs=[0x00499830]

loc_4D9335: ; preds= succs=loc_4D933B
  0x004D9335    8b 3d e0 9c b5 04                                mov     edi, dword_4B59CE0    ; data_refs=[0x04B59CE0]

loc_4D933B: ; preds=loc_4D9300,loc_4D9335 succs=loc_4D9350
  0x004D933B    8b cf                                            mov     ecx, edi
  0x004D933D    6b c9 64                                         imul    ecx, 64h ; 'd'
  0x004D9340    8d 91 f0 9c b7 04                                lea     edx, unk_4B79CF0[ecx]    ; data_refs=[0x04B79CF0]
  0x004D9346    2b d6                                            sub     edx, esi
  0x004D9348    8b c6                                            mov     eax, esi
  0x004D934A    33 db                                            xor     ebx, ebx
  0x004D934C    8d 64 24 00                                      lea     esp, [esp+0]

loc_4D9350: ; preds=loc_4D933B,loc_4D9350 succs=loc_4D935A,loc_4D9350
  0x004D9350    8a 08                                            mov     cl, [eax]
  0x004D9352    88 0c 02                                         mov     [edx+eax], cl
  0x004D9355    40                                               inc     eax
  0x004D9356    3a cb                                            cmp     cl, bl
  0x004D9358    75 f6                                            jnz     short loc_4D9350    ; code_refs=[0x004D9350]

loc_4D935A: ; preds=loc_4D9350 succs=loc_4D9370
  0x004D935A    47                                               inc     edi
  0x004D935B    8d 94 24 5c 01 00 00                             lea     edx, [esp+1C4h+FileName]
  0x004D9362    89 3d e0 9c b5 04                                mov     dword_4B59CE0, edi    ; data_refs=[0x04B59CE0]
  0x004D9368    8b c6                                            mov     eax, esi
  0x004D936A    2b d6                                            sub     edx, esi
  0x004D936C    8d 64 24 00                                      lea     esp, [esp+0]

loc_4D9370: ; preds=loc_4D935A,loc_4D9370 succs=loc_4D937A,loc_4D9370
  0x004D9370    8a 08                                            mov     cl, [eax]
  0x004D9372    88 0c 02                                         mov     [edx+eax], cl
  0x004D9375    40                                               inc     eax
  0x004D9376    3a cb                                            cmp     cl, bl
  0x004D9378    75 f6                                            jnz     short loc_4D9370    ; code_refs=[0x004D9370]

loc_4D937A: ; preds=loc_4D9370 succs=loc_4D9382
  0x004D937A    8d 84 24 5c 01 00 00                             lea     eax, [esp+1C4h+FileName]
  0x004D9381    48                                               dec     eax

loc_4D9382: ; preds=loc_4D937A,loc_4D9382 succs=loc_4D938A,loc_4D9382
  0x004D9382    8a 48 01                                         mov     cl, [eax+1]
  0x004D9385    40                                               inc     eax
  0x004D9386    3a cb                                            cmp     cl, bl
  0x004D9388    75 f8                                            jnz     short loc_4D9382    ; code_refs=[0x004D9382]

loc_4D938A: ; preds=loc_4D9382 succs=loc_4D93C0,loc_4D950F
  0x004D938A    8b 15 f8 4e 54 00                                mov     edx, ds:dword_544EF8    ; data_refs=[0x00544EF8]
  0x004D9390    66 8b 0d fc 4e 54 00                             mov     cx, ds:word_544EFC    ; data_refs=[0x00544EFC]
  0x004D9397    89 10                                            mov     [eax], edx
  0x004D9399    8d 54 24 14                                      lea     edx, [esp+1C4h+FindData]
  0x004D939D    66 89 48 04                                      mov     [eax+4], cx
  0x004D93A1    52                                               push    edx; FindData
  0x004D93A2    8d 84 24 60 01 00 00                             lea     eax, [esp+1C8h+FileName]
  0x004D93A9    50                                               push    eax; FileName
  0x004D93AA    ff 15 3c c4 53 00                                call    ds:_findfirst64i32    ; code_refs=[0x0053C43C] data_refs=[0x0053C43C]
  0x004D93B0    83 c4 08                                         add     esp, 8
  0x004D93B3    89 44 24 0c                                      mov     [esp+1C4h+FindHandle], eax
  0x004D93B7    83 f8 ff                                         cmp     eax, 0FFFFFFFFh
  0x004D93BA    0f 84 4f 01 00 00                                jz      loc_4D950F    ; code_refs=[0x004D950F]

loc_4D93C0: ; preds=loc_4D938A succs=loc_4D93C1
  0x004D93C0    55                                               push    ebp

loc_4D93C1: ; preds=loc_4D93C0,loc_4D94E5 succs=loc_4D93CC,loc_4D9405
  0x004D93C1    33 f6                                            xor     esi, esi
  0x004D93C3    33 ed                                            xor     ebp, ebp
  0x004D93C5    80 7c 24 3c 2e                                   cmp     [esp+1C8h+FindData.name], 2Eh ; '.'    ; data_refs=[0x000426FE]
  0x004D93CA    74 39                                            jz      short loc_4D9405    ; code_refs=[0x004D9405]

loc_4D93CC: ; preds=loc_4D93C1 succs=loc_4D93D0
  0x004D93CC    8d 7c 24 3c                                      lea     edi, [esp+1C8h+FindData.name]    ; data_refs=[0x000426FE]

loc_4D93D0: ; preds=loc_4D93CC,loc_4D93DF succs=loc_4D93D5,loc_4D93DF
  0x004D93D0    83 fe 1e                                         cmp     esi, 1Eh
  0x004D93D3    75 0a                                            jnz     short loc_4D93DF    ; code_refs=[0x004D93DF]

loc_4D93D5: ; preds=loc_4D93D0 succs=
  0x004D93D5    b9 b0 4e 54 00                                   mov     ecx, offset aTooLongTexture; "too long texture name"    ; data_refs=[0x00544EB0]
  0x004D93DA    e8 51 04 fc ff                                   call    sub_499830    ; code_refs=[0x00499830]

loc_4D93DF: ; preds=loc_4D93D0 succs=loc_4D93D0,loc_4D9405
  0x004D93DF    8a 07                                            mov     al, [edi]
  0x004D93E1    0f b6 c8                                         movzx   ecx, al
  0x004D93E4    66 d1 ed                                         shr     bp, 1
  0x004D93E7    66 03 2c 4d 48 60 b8 04                          add     bp, word_4B86048[ecx*2]    ; data_refs=[0x04B86048]
  0x004D93EF    88 84 34 40 01 00 00                             mov     [esp+esi+1C8h+var_88], al
  0x004D93F6    46                                               inc     esi
  0x004D93F7    80 7c 34 3c 2e                                   cmp     [esp+esi+1C8h+FindData.name], 2Eh ; '.'    ; data_refs=[0x000426FE]
  0x004D93FC    8d 7c 34 3c                                      lea     edi, [esp+esi+1C8h+FindData.name]    ; data_refs=[0x000426FE]
  0x004D9400    0f b7 ed                                         movzx   ebp, bp
  0x004D9403    75 cb                                            jnz     short loc_4D93D0    ; code_refs=[0x004D93D0]

loc_4D9405: ; preds=loc_4D93C1,loc_4D93DF succs=loc_4D9434
  0x004D9405    88 9c 34 40 01 00 00                             mov     [esp+esi+1C8h+var_88], bl
  0x004D940C    8b 35 d8 9c b5 04                                mov     esi, dword_4B59CD8    ; data_refs=[0x04B59CD8]
  0x004D9412    c1 e6 06                                         shl     esi, 6
  0x004D9415    03 35 e4 9c b5 04                                add     esi, dword_4B59CE4    ; data_refs=[0x04B59CE4]
  0x004D941B    6a 40                                            push    40h ; '@'; Size
  0x004D941D    53                                               push    ebx; Val
  0x004D941E    56                                               push    esi; void *
  0x004D941F    e8 76 50 05 00                                   call    memset    ; code_refs=[0x0052E49A]
  0x004D9424    8d 84 24 4c 01 00 00                             lea     eax, [esp+1D4h+var_88]
  0x004D942B    8b d6                                            mov     edx, esi
  0x004D942D    8b c8                                            mov     ecx, eax
  0x004D942F    83 c4 0c                                         add     esp, 0Ch
  0x004D9432    2b d1                                            sub     edx, ecx

loc_4D9434: ; preds=loc_4D9405,loc_4D9434 succs=loc_4D943E,loc_4D9434
  0x004D9434    8a 08                                            mov     cl, [eax]
  0x004D9436    88 0c 02                                         mov     [edx+eax], cl
  0x004D9439    40                                               inc     eax
  0x004D943A    3a cb                                            cmp     cl, bl
  0x004D943C    75 f6                                            jnz     short loc_4D9434    ; code_refs=[0x004D9434]

loc_4D943E: ; preds=loc_4D9434 succs=loc_4D9489,loc_4D94E5
  0x004D943E    8b 54 24 14                                      mov     edx, [esp+1C8h+var_1B4]
  0x004D9442    89 5e 24                                         mov     [esi+24h], ebx
  0x004D9445    89 56 20                                         mov     [esi+20h], edx
  0x004D9448    89 5e 38                                         mov     [esi+38h], ebx
  0x004D944B    89 5e 3c                                         mov     [esi+3Ch], ebx
  0x004D944E    8b 15 d8 9c b5 04                                mov     edx, dword_4B59CD8    ; data_refs=[0x04B59CD8]
  0x004D9454    03 15 c0 9c b5 04                                add     edx, dword_4B59CC0    ; data_refs=[0x04B59CC0]
  0x004D945A    0f b7 c5                                         movzx   eax, bp
  0x004D945D    0f b7 0c 45 f0 9c b5 04                          movzx   ecx, word_4B59CF0[eax*2]    ; data_refs=[0x04B59CF0]
  0x004D9465    66 89 14 45 f0 9c b5 04                          mov     word_4B59CF0[eax*2], dx    ; data_refs=[0x04B59CF0]
  0x004D946D    66 89 4e 28                                      mov     [esi+28h], cx
  0x004D9471    89 5e 30                                         mov     [esi+30h], ebx
  0x004D9474    89 5e 2c                                         mov     [esi+2Ch], ebx
  0x004D9477    a1 d8 9c b5 04                                   mov     eax, dword_4B59CD8    ; data_refs=[0x04B59CD8]
  0x004D947C    40                                               inc     eax
  0x004D947D    a3 d8 9c b5 04                                   mov     dword_4B59CD8, eax    ; data_refs=[0x04B59CD8]
  0x004D9482    3d c8 00 00 00                                   cmp     eax, 0C8h
  0x004D9487    75 5c                                            jnz     short loc_4D94E5    ; code_refs=[0x004D94E5]

loc_4D9489: ; preds=loc_4D943E succs=loc_4D94E5
  0x004D9489    8b 15 c0 9c b5 04                                mov     edx, dword_4B59CC0    ; data_refs=[0x04B59CC0]
  0x004D948F    8b 0d 48 60 ba 04                                mov     ecx, dword_4BA6048    ; data_refs=[0x04BA6048]
  0x004D9495    68 27 01 00 00                                   push    127h
  0x004D949A    03 d0                                            add     edx, eax
  0x004D949C    68 88 4e 54 00                                   push    offset aShareclientsev_35; "..\\ShareClientSeverCode\\texturesset.c"...    ; data_refs=[0x00544E88]
  0x004D94A1    c1 e2 06                                         shl     edx, 6
  0x004D94A4    e8 67 26 05 00                                   call    sub_52BB10    ; code_refs=[0x0052BB10]
  0x004D94A9    8b 0d d8 9c b5 04                                mov     ecx, dword_4B59CD8    ; data_refs=[0x04B59CD8]
  0x004D94AF    8b 15 e4 9c b5 04                                mov     edx, dword_4B59CE4    ; data_refs=[0x04B59CE4]
  0x004D94B5    c1 e1 06                                         shl     ecx, 6
  0x004D94B8    51                                               push    ecx; Size
  0x004D94B9    8b 0d c0 9c b5 04                                mov     ecx, dword_4B59CC0    ; data_refs=[0x04B59CC0]
  0x004D94BF    c1 e1 06                                         shl     ecx, 6
  0x004D94C2    52                                               push    edx; Src
  0x004D94C3    03 c8                                            add     ecx, eax
  0x004D94C5    51                                               push    ecx; void *
  0x004D94C6    a3 48 60 ba 04                                   mov     dword_4BA6048, eax    ; data_refs=[0x04BA6048]
  0x004D94CB    e8 c4 4f 05 00                                   call    memcpy    ; code_refs=[0x0052E494]
  0x004D94D0    8b 15 d8 9c b5 04                                mov     edx, dword_4B59CD8    ; data_refs=[0x04B59CD8]
  0x004D94D6    83 c4 0c                                         add     esp, 0Ch
  0x004D94D9    01 15 c0 9c b5 04                                add     dword_4B59CC0, edx    ; data_refs=[0x04B59CC0]
  0x004D94DF    89 1d d8 9c b5 04                                mov     dword_4B59CD8, ebx    ; data_refs=[0x04B59CD8]

loc_4D94E5: ; preds=loc_4D943E,loc_4D9489 succs=loc_4D93C1,loc_4D9500
  0x004D94E5    8b 4c 24 10                                      mov     ecx, [esp+1C8h+FindHandle]
  0x004D94E9    8d 44 24 18                                      lea     eax, [esp+1C8h+FindData]
  0x004D94ED    50                                               push    eax; FindData
  0x004D94EE    51                                               push    ecx; FindHandle
  0x004D94EF    ff 15 38 c4 53 00                                call    ds:_findnext64i32    ; code_refs=[0x0053C438] data_refs=[0x0053C438]
  0x004D94F5    83 c4 08                                         add     esp, 8
  0x004D94F8    85 c0                                            test    eax, eax
  0x004D94FA    0f 84 c1 fe ff ff                                jz      loc_4D93C1    ; code_refs=[0x004D93C1]

loc_4D9500: ; preds=loc_4D94E5 succs=loc_4D950F
  0x004D9500    8b 54 24 10                                      mov     edx, [esp+1C8h+FindHandle]
  0x004D9504    52                                               push    edx; FindHandle
  0x004D9505    ff 15 34 c4 53 00                                call    ds:_findclose    ; code_refs=[0x0053C434] data_refs=[0x0053C434]
  0x004D950B    83 c4 04                                         add     esp, 4
  0x004D950E    5d                                               pop     ebp

loc_4D950F: ; preds=loc_4D938A,loc_4D9500 succs=
  0x004D950F    8b 8c 24 c0 01 00 00                             mov     ecx, [esp+1C4h+var_4]
  0x004D9516    5f                                               pop     edi
  0x004D9517    5e                                               pop     esi
  0x004D9518    5b                                               pop     ebx
  0x004D9519    33 cc                                            xor     ecx, esp
  0x004D951B    e8 80 4f 05 00                                   call    sub_52E4A0    ; code_refs=[0x0052E4A0]
  0x004D9520    81 c4 b8 01 00 00                                add     esp, 1B8h
  0x004D9526    c3                                               retn
; END_FUNC 0x004D9300 sub_4D9300


; ======================================================================================================================
; FUNC 0x004D9530 sub_4D9530 size=64 segment=.text
; STRINGS:
;   0x00544E88 '..\\ShareClientSeverCode\\texturesset.cpp'
; ----------------------------------------------------------------------------------------------------------------------

loc_4D9530:
  0x004D9530    e8 eb fc ff ff                                   call    sub_4D9220    ; code_refs=[0x004D9220]
  0x004D9535    68 00 00 02 00                                   push    20000h; Size
  0x004D953A    68 ff 00 00 00                                   push    0FFh; Val
  0x004D953F    68 f0 9c b5 04                                   push    offset word_4B59CF0; void *    ; data_refs=[0x04B59CF0]
  0x004D9544    e8 51 4f 05 00                                   call    memset    ; code_refs=[0x0052E49A]
  0x004D9549    83 c4 0c                                         add     esp, 0Ch
  0x004D954C    68 6f 01 00 00                                   push    16Fh
  0x004D9551    ba 88 4e 54 00                                   mov     edx, offset aShareclientsev_35; "..\\ShareClientSeverCode\\texturesset.c"...    ; data_refs=[0x00544E88]
  0x004D9556    b9 00 32 00 00                                   mov     ecx, 3200h
  0x004D955B    e8 90 25 05 00                                   call    sub_52BAF0    ; code_refs=[0x0052BAF0]
  0x004D9560    a3 e4 9c b5 04                                   mov     dword_4B59CE4, eax    ; data_refs=[0x04B59CE4]
  0x004D9565    c7 05 dc 9c b5 04 01 00 00 00                    mov     dword_4B59CDC, 1    ; data_refs=[0x04B59CDC]
  0x004D956F    c3                                               retn
; END_FUNC 0x004D9530 sub_4D9530


; ======================================================================================================================
; FUNC 0x004D9570 sub_4D9570 size=146 segment=.text
; STRINGS:
;   0x00544F00 'add_texture_folder: MAX_TEX_PATH_LEN exceeded'
;   0x00544E88 '..\\ShareClientSeverCode\\texturesset.cpp'
; ----------------------------------------------------------------------------------------------------------------------

loc_4D9570: ; preds= succs=loc_4D9578
  0x004D9570    56                                               push    esi
  0x004D9571    8b f1                                            mov     esi, ecx
  0x004D9573    8b c6                                            mov     eax, esi
  0x004D9575    8d 50 01                                         lea     edx, [eax+1]

loc_4D9578: ; preds=loc_4D9570,loc_4D9578 succs=loc_4D957F,loc_4D9578
  0x004D9578    8a 08                                            mov     cl, [eax]
  0x004D957A    40                                               inc     eax
  0x004D957B    84 c9                                            test    cl, cl
  0x004D957D    75 f9                                            jnz     short loc_4D9578    ; code_refs=[0x004D9578]

loc_4D957F: ; preds=loc_4D9578 succs=loc_4D9586,loc_4D9590
  0x004D957F    2b c2                                            sub     eax, edx
  0x004D9581    83 f8 5a                                         cmp     eax, 5Ah ; 'Z'
  0x004D9584    72 0a                                            jb      short loc_4D9590    ; code_refs=[0x004D9590]

loc_4D9586: ; preds=loc_4D957F succs=
  0x004D9586    b9 00 4f 54 00                                   mov     ecx, offset aAddTextureFold; "add_texture_folder: MAX_TEX_PATH_LEN ex"...    ; data_refs=[0x00544F00]
  0x004D958B    e8 a0 02 fc ff                                   call    sub_499830    ; code_refs=[0x00499830]

loc_4D9590: ; preds=loc_4D957F succs=loc_4D95AB,loc_4D9601
  0x004D9590    8b ce                                            mov     ecx, esi
  0x004D9592    c7 05 d8 9c b5 04 00 00 00 00                    mov     dword_4B59CD8, 0    ; data_refs=[0x04B59CD8]
  0x004D959C    e8 5f fd ff ff                                   call    sub_4D9300    ; code_refs=[0x004D9300]
  0x004D95A1    a1 d8 9c b5 04                                   mov     eax, dword_4B59CD8    ; data_refs=[0x04B59CD8]
  0x004D95A6    5e                                               pop     esi
  0x004D95A7    85 c0                                            test    eax, eax
  0x004D95A9    74 56                                            jz      short locret_4D9601    ; code_refs=[0x004D9601]

loc_4D95AB: ; preds=loc_4D9590 succs=loc_4D9601
  0x004D95AB    8b 15 c0 9c b5 04                                mov     edx, dword_4B59CC0    ; data_refs=[0x04B59CC0]
  0x004D95B1    8b 0d 48 60 ba 04                                mov     ecx, dword_4BA6048    ; data_refs=[0x04BA6048]
  0x004D95B7    68 b4 01 00 00                                   push    1B4h
  0x004D95BC    8d 14 02                                         lea     edx, [edx+eax]
  0x004D95BF    68 88 4e 54 00                                   push    offset aShareclientsev_35; "..\\ShareClientSeverCode\\texturesset.c"...    ; data_refs=[0x00544E88]
  0x004D95C4    c1 e2 06                                         shl     edx, 6
  0x004D95C7    e8 44 25 05 00                                   call    sub_52BB10    ; code_refs=[0x0052BB10]
  0x004D95CC    8b 15 d8 9c b5 04                                mov     edx, dword_4B59CD8    ; data_refs=[0x04B59CD8]
  0x004D95D2    8b 0d e4 9c b5 04                                mov     ecx, dword_4B59CE4    ; data_refs=[0x04B59CE4]
  0x004D95D8    c1 e2 06                                         shl     edx, 6
  0x004D95DB    52                                               push    edx; Size
  0x004D95DC    8b 15 c0 9c b5 04                                mov     edx, dword_4B59CC0    ; data_refs=[0x04B59CC0]
  0x004D95E2    c1 e2 06                                         shl     edx, 6
  0x004D95E5    51                                               push    ecx; Src
  0x004D95E6    03 d0                                            add     edx, eax
  0x004D95E8    52                                               push    edx; void *
  0x004D95E9    a3 48 60 ba 04                                   mov     dword_4BA6048, eax    ; data_refs=[0x04BA6048]
  0x004D95EE    e8 a1 4e 05 00                                   call    memcpy    ; code_refs=[0x0052E494]
  0x004D95F3    a1 d8 9c b5 04                                   mov     eax, dword_4B59CD8    ; data_refs=[0x04B59CD8]
  0x004D95F8    83 c4 0c                                         add     esp, 0Ch
  0x004D95FB    01 05 c0 9c b5 04                                add     dword_4B59CC0, eax    ; data_refs=[0x04B59CC0]

loc_4D9601: ; preds=loc_4D9590,loc_4D95AB succs=
  0x004D9601    c3                                               retn
; END_FUNC 0x004D9570 sub_4D9570


; ======================================================================================================================
; FUNC 0x004D99A0 sub_4D99A0 size=198 segment=.text
; STRINGS:
;   0x00544E88 '..\\ShareClientSeverCode\\texturesset.cpp'
;   0x00541C18 'default'
;   0x00545014 "Texture 'default' not found"
; ----------------------------------------------------------------------------------------------------------------------

loc_4D99A0: ; preds= succs=loc_4D99D1,loc_4D99DB
  0x004D99A0    8b 0d e4 9c b5 04                                mov     ecx, dword_4B59CE4    ; data_refs=[0x04B59CE4]
  0x004D99A6    56                                               push    esi
  0x004D99A7    68 76 01 00 00                                   push    176h
  0x004D99AC    ba 88 4e 54 00                                   mov     edx, offset aShareclientsev_35; "..\\ShareClientSeverCode\\texturesset.c"...    ; data_refs=[0x00544E88]
  0x004D99B1    e8 fa 17 05 00                                   call    sub_52B1B0    ; code_refs=[0x0052B1B0]
  0x004D99B6    b9 18 1c 54 00                                   mov     ecx, offset aDefault; "default"    ; data_refs=[0x00541C18]
  0x004D99BB    c7 05 44 60 b8 04 ff ff ff ff                    mov     dword_4B86044, 0FFFFFFFFh    ; data_refs=[0x04B86044]
  0x004D99C5    e8 46 fc ff ff                                   call    sub_4D9610    ; code_refs=[0x004D9610]
  0x004D99CA    8b f0                                            mov     esi, eax
  0x004D99CC    83 fe ff                                         cmp     esi, 0FFFFFFFFh
  0x004D99CF    75 0a                                            jnz     short loc_4D99DB    ; code_refs=[0x004D99DB]

loc_4D99D1: ; preds=loc_4D99A0 succs=
  0x004D99D1    b9 14 50 54 00                                   mov     ecx, offset aTextureDefault; "Texture 'default' not found"    ; data_refs=[0x00545014]
  0x004D99D6    e8 55 fe fb ff                                   call    sub_499830    ; code_refs=[0x00499830]

loc_4D99DB: ; preds=loc_4D99A0 succs=loc_4D9A0B,loc_4D9A52
  0x004D99DB    8b 0d c0 9c b5 04                                mov     ecx, dword_4B59CC0    ; data_refs=[0x04B59CC0]
  0x004D99E1    03 c9                                            add     ecx, ecx
  0x004D99E3    03 c9                                            add     ecx, ecx
  0x004D99E5    68 7f 01 00 00                                   push    17Fh
  0x004D99EA    03 c9                                            add     ecx, ecx
  0x004D99EC    ba 88 4e 54 00                                   mov     edx, offset aShareclientsev_35; "..\\ShareClientSeverCode\\texturesset.c"...    ; data_refs=[0x00544E88]
  0x004D99F1    89 35 44 60 b8 04                                mov     dword_4B86044, esi    ; data_refs=[0x04B86044]
  0x004D99F7    e8 f4 20 05 00                                   call    sub_52BAF0    ; code_refs=[0x0052BAF0]
  0x004D99FC    8b 0d c0 9c b5 04                                mov     ecx, dword_4B59CC0    ; data_refs=[0x04B59CC0]
  0x004D9A02    a3 50 60 ba 04                                   mov     dword_4BA6050, eax    ; data_refs=[0x04BA6050]
  0x004D9A07    85 c9                                            test    ecx, ecx
  0x004D9A09    7e 47                                            jle     short loc_4D9A52    ; code_refs=[0x004D9A52]

loc_4D9A0B: ; preds=loc_4D99DB succs=loc_4D9A17
  0x004D9A0B    33 d2                                            xor     edx, edx
  0x004D9A0D    8d 4a 01                                         lea     ecx, [edx+1]
  0x004D9A10    eb 05                                            jmp     short loc_4D9A17    ; code_refs=[0x004D9A17]

loc_4D9A12: ; preds=loc_4D9A17 succs=loc_4D9A17
  0x004D9A12    a1 50 60 ba 04                                   mov     eax, dword_4BA6050    ; data_refs=[0x04BA6050]

loc_4D9A17: ; preds=loc_4D9A0B,loc_4D9A12 succs=loc_4D9A12,loc_4D9A36
  0x004D9A17    8d 71 fe                                         lea     esi, [ecx-2]
  0x004D9A1A    89 34 02                                         mov     [edx+eax], esi
  0x004D9A1D    a1 50 60 ba 04                                   mov     eax, dword_4BA6050    ; data_refs=[0x04BA6050]
  0x004D9A22    89 4c 02 04                                      mov     [edx+eax+4], ecx
  0x004D9A26    a1 c0 9c b5 04                                   mov     eax, dword_4B59CC0    ; data_refs=[0x04B59CC0]
  0x004D9A2B    41                                               inc     ecx
  0x004D9A2C    8d 71 ff                                         lea     esi, [ecx-1]
  0x004D9A2F    83 c2 08                                         add     edx, 8
  0x004D9A32    3b f0                                            cmp     esi, eax
  0x004D9A34    7c dc                                            jl      short loc_4D9A12    ; code_refs=[0x004D9A12]

loc_4D9A36: ; preds=loc_4D9A17 succs=
  0x004D9A36    8b 0d 50 60 ba 04                                mov     ecx, dword_4BA6050    ; data_refs=[0x04BA6050]
  0x004D9A3C    c7 44 c1 fc 40 42 0f 00                          mov     dword ptr [ecx+eax*8-4], 0F4240h
  0x004D9A44    8b 15 c0 9c b5 04                                mov     edx, dword_4B59CC0    ; data_refs=[0x04B59CC0]
  0x004D9A4A    89 15 c0 60 ba 04                                mov     dword_4BA60C0, edx    ; data_refs=[0x04BA60C0]
  0x004D9A50    5e                                               pop     esi
  0x004D9A51    c3                                               retn

loc_4D9A52: ; preds=loc_4D99DB succs=
  0x004D9A52    c7 44 c8 fc 40 42 0f 00                          mov     dword ptr [eax+ecx*8-4], 0F4240h
  0x004D9A5A    a1 c0 9c b5 04                                   mov     eax, dword_4B59CC0    ; data_refs=[0x04B59CC0]
  0x004D9A5F    a3 c0 60 ba 04                                   mov     dword_4BA60C0, eax    ; data_refs=[0x04BA60C0]
  0x004D9A64    5e                                               pop     esi
  0x004D9A65    c3                                               retn
; END_FUNC 0x004D99A0 sub_4D99A0


; ======================================================================================================================
; FUNC 0x004D9B00 sub_4D9B00 size=556 segment=.text
; STRINGS:
;   0x00564490 'N'
;   0x00544E88 '..\\ShareClientSeverCode\\texturesset.cpp'
;   0x0054504C 'preload_texture: wrong textureID = %d, texsNum = %d'
;   0x00545030 '.dds'
;   0x00560890 '@B'
;   0x00545038 'File not found %s'
;   0x0055944C '"'
; ----------------------------------------------------------------------------------------------------------------------

loc_4D9B00: ; preds= succs=loc_4D9B4B,loc_4D9B4F
  0x004D9B00    6a ff                                            push    0FFFFFFFFh
  0x004D9B02    68 3b 1e 53 00                                   push    offset SEH_499B00    ; data_refs=[0x00531E3B]
  0x004D9B07    64 a1 00 00 00 00                                mov     eax, large fs:0
  0x004D9B0D    50                                               push    eax
  0x004D9B0E    81 ec 44 02 00 00                                sub     esp, 244h
  0x004D9B14    a1 90 44 56 00                                   mov     eax, dword_564490    ; data_refs=[0x00564490]
  0x004D9B19    33 c4                                            xor     eax, esp
  0x004D9B1B    89 84 24 40 02 00 00                             mov     [esp+250h+var_10], eax
  0x004D9B22    53                                               push    ebx
  0x004D9B23    55                                               push    ebp
  0x004D9B24    56                                               push    esi
  0x004D9B25    57                                               push    edi
  0x004D9B26    a1 90 44 56 00                                   mov     eax, dword_564490    ; data_refs=[0x00564490]
  0x004D9B2B    33 c4                                            xor     eax, esp
  0x004D9B2D    50                                               push    eax
  0x004D9B2E    8d 84 24 58 02 00 00                             lea     eax, [esp+264h+var_C]
  0x004D9B35    64 a3 00 00 00 00                                mov     large fs:0, eax
  0x004D9B3B    8b e9                                            mov     ebp, ecx
  0x004D9B3D    a1 c0 9c b5 04                                   mov     eax, dword_4B59CC0    ; data_refs=[0x04B59CC0]
  0x004D9B42    bf 88 4e 54 00                                   mov     edi, offset aShareclientsev_35; "..\\ShareClientSeverCode\\texturesset.c"...    ; data_refs=[0x00544E88]
  0x004D9B47    85 ed                                            test    ebp, ebp
  0x004D9B49    78 04                                            js      short loc_4D9B4F    ; code_refs=[0x004D9B4F]

loc_4D9B4B: ; preds=loc_4D9B00 succs=loc_4D9B4F,loc_4D9B7D
  0x004D9B4B    3b e8                                            cmp     ebp, eax
  0x004D9B4D    7c 2e                                            jl      short loc_4D9B7D    ; code_refs=[0x004D9B7D]

loc_4D9B4F: ; preds=loc_4D9B00,loc_4D9B4B succs=loc_4D9B7D
  0x004D9B4F    50                                               push    eax
  0x004D9B50    55                                               push    ebp; ArgList
  0x004D9B51    8d 44 24 28                                      lea     eax, [esp+26Ch+var_244]
  0x004D9B55    68 4c 50 54 00                                   push    offset aPreloadTexture; "preload_texture: wrong textureID = %d, "...    ; data_refs=[0x0054504C]
  0x004D9B5A    50                                               push    eax; int
  0x004D9B5B    89 7c 24 30                                      mov     [esp+274h+var_244], edi
  0x004D9B5F    c7 44 24 34 4a 02 00 00                          mov     [esp+274h+var_240], 24Ah
  0x004D9B67    c7 44 24 38 01 00 00 00                          mov     [esp+274h+var_23C], 1
  0x004D9B6F    e8 fc 23 05 00                                   call    sub_52BF70    ; code_refs=[0x0052BF70]
  0x004D9B74    8b 2d 44 60 b8 04                                mov     ebp, dword_4B86044    ; data_refs=[0x04B86044]
  0x004D9B7A    83 c4 10                                         add     esp, 10h

loc_4D9B7D: ; preds=loc_4D9B4B,loc_4D9B4F succs=loc_4D9BA8,loc_4D9D02
  0x004D9B7D    8b 0d 48 60 ba 04                                mov     ecx, dword_4BA6048    ; data_refs=[0x04BA6048]
  0x004D9B83    8b 15 e8 9c b5 04                                mov     edx, dword_4B59CE8    ; data_refs=[0x04B59CE8]
  0x004D9B89    8b c5                                            mov     eax, ebp
  0x004D9B8B    c1 e0 06                                         shl     eax, 6
  0x004D9B8E    83 7c 08 24 00                                   cmp     dword ptr [eax+ecx+24h], 0
  0x004D9B93    8d 1c 08                                         lea     ebx, [eax+ecx]
  0x004D9B96    89 53 38                                         mov     [ebx+38h], edx
  0x004D9B99    8b 0d ec 9c b5 04                                mov     ecx, dword_4B59CEC    ; data_refs=[0x04B59CEC]
  0x004D9B9F    89 4b 3c                                         mov     [ebx+3Ch], ecx
  0x004D9BA2    0f 85 5a 01 00 00                                jnz     loc_4D9D02    ; code_refs=[0x004D9D02]

loc_4D9BA8: ; preds=loc_4D9B7D succs=loc_4D9C17,loc_4D9C22
  0x004D9BA8    8b 15 48 60 ba 04                                mov     edx, dword_4BA6048    ; data_refs=[0x04BA6048]
  0x004D9BAE    8d 34 10                                         lea     esi, [eax+edx]
  0x004D9BB1    c6 44 24 54 00                                   mov     [esp+264h+FileName], 0
  0x004D9BB6    8b 46 20                                         mov     eax, [esi+20h]
  0x004D9BB9    6b c0 64                                         imul    eax, 64h ; 'd'
  0x004D9BBC    05 f0 9c b7 04                                   add     eax, offset unk_4B79CF0    ; data_refs=[0x04B79CF0]
  0x004D9BC1    50                                               push    eax; Src
  0x004D9BC2    8d 4c 24 58                                      lea     ecx, [esp+268h+FileName]; void *
  0x004D9BC6    e8 75 fc ff ff                                   call    sub_4D9840    ; code_refs=[0x004D9840]
  0x004D9BCB    68 ff ff ff 7f                                   push    7FFFFFFFh; int
  0x004D9BD0    56                                               push    esi; Src
  0x004D9BD1    8d 4c 24 5c                                      lea     ecx, [esp+26Ch+FileName]
  0x004D9BD5    e8 e6 fc ff ff                                   call    sub_4D98C0    ; code_refs=[0x004D98C0]
  0x004D9BDA    68 ff ff ff 7f                                   push    7FFFFFFFh; int
  0x004D9BDF    68 30 50 54 00                                   push    offset aDds; ".dds"    ; data_refs=[0x00545030]
  0x004D9BE4    8d 4c 24 5c                                      lea     ecx, [esp+26Ch+FileName]
  0x004D9BE8    e8 d3 fc ff ff                                   call    sub_4D98C0    ; code_refs=[0x004D98C0]
  0x004D9BED    8d 4c 24 54                                      lea     ecx, [esp+264h+FileName]
  0x004D9BF1    51                                               push    ecx; lpFileName
  0x004D9BF2    8d 4c 24 30                                      lea     ecx, [esp+268h+var_238]
  0x004D9BF6    e8 c5 3a 05 00                                   call    sub_52D6C0    ; code_refs=[0x0052D6C0]
  0x004D9BFB    a1 50 60 ba 04                                   mov     eax, dword_4BA6050    ; data_refs=[0x04BA6050]
  0x004D9C00    8b 0c e8                                         mov     ecx, [eax+ebp*8]
  0x004D9C03    8b 54 e8 04                                      mov     edx, [eax+ebp*8+4]
  0x004D9C07    c7 84 24 60 02 00 00 00 00 00 00                 mov     [esp+264h+var_4], 0
  0x004D9C12    83 f9 ff                                         cmp     ecx, 0FFFFFFFFh
  0x004D9C15    74 0b                                            jz      short loc_4D9C22    ; code_refs=[0x004D9C22]

loc_4D9C17: ; preds=loc_4D9BA8 succs=loc_4D9C28
  0x004D9C17    89 54 c8 04                                      mov     [eax+ecx*8+4], edx
  0x004D9C1B    a1 50 60 ba 04                                   mov     eax, dword_4BA6050    ; data_refs=[0x04BA6050]
  0x004D9C20    eb 06                                            jmp     short loc_4D9C28    ; code_refs=[0x004D9C28]

loc_4D9C22: ; preds=loc_4D9BA8 succs=loc_4D9C28
  0x004D9C22    89 15 bc 60 ba 04                                mov     dword_4BA60BC, edx    ; data_refs=[0x04BA60BC]

loc_4D9C28: ; preds=loc_4D9C17,loc_4D9C22 succs=loc_4D9C30,loc_4D9C38
  0x004D9C28    81 fa 40 42 0f 00                                cmp     edx, 0F4240h
  0x004D9C2E    74 08                                            jz      short loc_4D9C38    ; code_refs=[0x004D9C38]

loc_4D9C30: ; preds=loc_4D9C28 succs=loc_4D9C38
  0x004D9C30    89 0c d0                                         mov     [eax+edx*8], ecx
  0x004D9C33    a1 50 60 ba 04                                   mov     eax, dword_4BA6050    ; data_refs=[0x04BA6050]

loc_4D9C38: ; preds=loc_4D9C28,loc_4D9C30 succs=loc_4D9C46,loc_4D9C50
  0x004D9C38    8b 0d 90 08 56 00                                mov     ecx, dword_560890    ; data_refs=[0x00560890]
  0x004D9C3E    81 f9 40 42 0f 00                                cmp     ecx, 0F4240h
  0x004D9C44    74 0a                                            jz      short loc_4D9C50    ; code_refs=[0x004D9C50]

loc_4D9C46: ; preds=loc_4D9C38 succs=loc_4D9C56
  0x004D9C46    89 2c c8                                         mov     [eax+ecx*8], ebp
  0x004D9C49    a1 50 60 ba 04                                   mov     eax, dword_4BA6050    ; data_refs=[0x04BA6050]
  0x004D9C4E    eb 06                                            jmp     short loc_4D9C56    ; code_refs=[0x004D9C56]

loc_4D9C50: ; preds=loc_4D9C38 succs=loc_4D9C56
  0x004D9C50    89 2d 94 08 56 00                                mov     dword_560894, ebp    ; data_refs=[0x00560894]

loc_4D9C56: ; preds=loc_4D9C46,loc_4D9C50 succs=loc_4D9C7F,loc_4D9CCA
  0x004D9C56    c7 04 e8 ff ff ff ff                             mov     dword ptr [eax+ebp*8], 0FFFFFFFFh
  0x004D9C5D    8b 15 90 08 56 00                                mov     edx, dword_560890    ; data_refs=[0x00560890]
  0x004D9C63    a1 50 60 ba 04                                   mov     eax, dword_4BA6050    ; data_refs=[0x04BA6050]
  0x004D9C68    89 54 e8 04                                      mov     [eax+ebp*8+4], edx
  0x004D9C6C    8d 4c 24 2c                                      lea     ecx, [esp+264h+var_238]
  0x004D9C70    89 2d 90 08 56 00                                mov     dword_560890, ebp    ; data_refs=[0x00560890]
  0x004D9C76    e8 e5 37 05 00                                   call    sub_52D460    ; code_refs=[0x0052D460]
  0x004D9C7B    84 c0                                            test    al, al
  0x004D9C7D    75 4b                                            jnz     short loc_4D9CCA    ; code_refs=[0x004D9CCA]

loc_4D9C7F: ; preds=loc_4D9C56 succs=loc_4D9CCA
  0x004D9C7F    81 ec 00 02 00 00                                sub     esp, 200h
  0x004D9C85    89 bc 24 14 02 00 00                             mov     [esp+464h+var_250], edi
  0x004D9C8C    8b fc                                            mov     edi, esp
  0x004D9C8E    b9 80 00 00 00                                   mov     ecx, 80h
  0x004D9C93    8d b4 24 54 02 00 00                             lea     esi, [esp+464h+FileName]
  0x004D9C9A    f3 a5                                            rep movsd
  0x004D9C9C    8d 8c 24 14 02 00 00                             lea     ecx, [esp+464h+var_250]
  0x004D9CA3    68 38 50 54 00                                   push    offset aFileNotFoundS_0; "File not found %s"    ; data_refs=[0x00545038]
  0x004D9CA8    51                                               push    ecx; int
  0x004D9CA9    c7 84 24 20 02 00 00 65 02 00 00                 mov     [esp+46Ch+var_24C], 265h
  0x004D9CB4    c7 84 24 24 02 00 00 02 00 00 00                 mov     [esp+46Ch+var_248], 2
  0x004D9CBF    e8 ac 22 05 00                                   call    sub_52BF70    ; code_refs=[0x0052BF70]
  0x004D9CC4    81 c4 08 02 00 00                                add     esp, 208h

loc_4D9CCA: ; preds=loc_4D9C56,loc_4D9C7F succs=loc_4D9D02
  0x004D9CCA    8d 4c 24 2c                                      lea     ecx, [esp+264h+var_238]
  0x004D9CCE    e8 ad 37 05 00                                   call    sub_52D480    ; code_refs=[0x0052D480]
  0x004D9CD3    50                                               push    eax
  0x004D9CD4    8d 4c 24 30                                      lea     ecx, [esp+268h+var_238]
  0x004D9CD8    e8 13 38 05 00                                   call    sub_52D4F0    ; code_refs=[0x0052D4F0]
  0x004D9CDD    8b d0                                            mov     edx, eax
  0x004D9CDF    8b cd                                            mov     ecx, ebp
  0x004D9CE1    e8 da f9 ff ff                                   call    sub_4D96C0    ; code_refs=[0x004D96C0]
  0x004D9CE6    6a 00                                            push    0; lpBaseAddress
  0x004D9CE8    ff 15 a4 c0 53 00                                call    ds:UnmapViewOfFile    ; code_refs=[0x0053C0A4] data_refs=[0x0053C0A4]
  0x004D9CEE    8d 4c 24 2c                                      lea     ecx, [esp+264h+var_238]
  0x004D9CF2    c7 84 24 60 02 00 00 ff ff ff ff                 mov     [esp+264h+var_4], 0FFFFFFFFh
  0x004D9CFD    e8 6e 38 05 00                                   call    sub_52D570    ; code_refs=[0x0052D570]

loc_4D9D02: ; preds=loc_4D9B7D,loc_4D9CCA succs=
  0x004D9D02    8b c3                                            mov     eax, ebx
  0x004D9D04    8b 8c 24 58 02 00 00                             mov     ecx, [esp+264h+var_C]
  0x004D9D0B    64 89 0d 00 00 00 00                             mov     large fs:0, ecx
  0x004D9D12    59                                               pop     ecx
  0x004D9D13    5f                                               pop     edi
  0x004D9D14    5e                                               pop     esi
  0x004D9D15    5d                                               pop     ebp
  0x004D9D16    5b                                               pop     ebx
  0x004D9D17    8b 8c 24 40 02 00 00                             mov     ecx, [esp+250h+var_10]
  0x004D9D1E    33 cc                                            xor     ecx, esp
  0x004D9D20    e8 7b 47 05 00                                   call    sub_52E4A0    ; code_refs=[0x0052E4A0]
  0x004D9D25    81 c4 50 02 00 00                                add     esp, 250h
  0x004D9D2B    c3                                               retn

loc_531E30: ; preds= succs=loc_52D570
  0x00531E30    8d 8d c8 fd ff ff                                lea     ecx, [ebp-238h]
  0x00531E36    e9 35 b7 ff ff                                   jmp     sub_52D570    ; code_refs=[0x0052D570]

loc_531E3B: ; preds= succs=loc_52E5C6
  0x00531E3B    8b 54 24 08                                      mov     edx, [esp+arg_4]
  0x00531E3F    8d 82 ac fd ff ff                                lea     eax, [edx-254h]
  0x00531E45    8b 8a a8 fd ff ff                                mov     ecx, [edx-258h]
  0x00531E4B    33 c8                                            xor     ecx, eax
  0x00531E4D    e8 4e c6 ff ff                                   call    sub_52E4A0    ; code_refs=[0x0052E4A0]
  0x00531E52    83 c0 10                                         add     eax, 10h
  0x00531E55    8b 4a fc                                         mov     ecx, [edx-4]
  0x00531E58    33 c8                                            xor     ecx, eax
  0x00531E5A    e8 41 c6 ff ff                                   call    sub_52E4A0    ; code_refs=[0x0052E4A0]
  0x00531E5F    b8 4c 94 55 00                                   mov     eax, offset stru_55944C    ; data_refs=[0x0055944C]
  0x00531E64    e9 5d c7 ff ff                                   jmp     __CxxFrameHandler3    ; code_refs=[0x0052E5C6]
; END_FUNC 0x004D9B00 sub_4D9B00


; ======================================================================================================================
; FUNC 0x004E4260 sub_4E4260 size=457 segment=.text
; TYPE: int __stdcall(int, char *FileName, int)
; STRINGS:
;   0x00564490 'N'
;   0x0054488C 'rb'
;   0x0054606C "Can't open font '%s'"
;   0x00546044 "Can't load texture '%s' for font '%s'"
;   0x00545FE4 '..\\ShareClientSeverCode\\Interface\\Font.cpp'
; ----------------------------------------------------------------------------------------------------------------------

loc_4E4260: ; preds= succs=loc_4E42AB,loc_4E42C6
  0x004E4260    81 ec 10 01 00 00                                sub     esp, 110h
  0x004E4266    a1 90 44 56 00                                   mov     eax, dword_564490    ; data_refs=[0x00564490]
  0x004E426B    33 c4                                            xor     eax, esp
  0x004E426D    89 84 24 0c 01 00 00                             mov     [esp+110h+var_4], eax
  0x004E4274    8b 84 24 14 01 00 00                             mov     eax, [esp+110h+arg_0]
  0x004E427B    53                                               push    ebx
  0x004E427C    55                                               push    ebp
  0x004E427D    8b ac 24 20 01 00 00                             mov     ebp, [esp+118h+FileName]
  0x004E4284    57                                               push    edi
  0x004E4285    8b d9                                            mov     ebx, ecx
  0x004E4287    8b 8c 24 28 01 00 00                             mov     ecx, [esp+11Ch+arg_8]
  0x004E428E    68 8c 48 54 00                                   push    offset aRb; "rb"    ; data_refs=[0x0054488C]
  0x004E4293    55                                               push    ebp; FileName
  0x004E4294    89 44 24 18                                      mov     [esp+124h+var_10C], eax
  0x004E4298    89 4c 24 1c                                      mov     dword ptr [esp+124h+ArgList], ecx
  0x004E429C    ff 15 14 c4 53 00                                call    ds:fopen    ; code_refs=[0x0053C414] data_refs=[0x0053C414]
  0x004E42A2    8b f8                                            mov     edi, eax
  0x004E42A4    83 c4 08                                         add     esp, 8
  0x004E42A7    85 ff                                            test    edi, edi
  0x004E42A9    75 1b                                            jnz     short loc_4E42C6    ; code_refs=[0x004E42C6]

loc_4E42AB: ; preds=loc_4E4260 succs=loc_4E440F
  0x004E42AB    55                                               push    ebp; ArgList
  0x004E42AC    68 6c 60 54 00                                   push    offset aCanTOpenFontS; "Can't open font '%s'"    ; data_refs=[0x0054606C]
  0x004E42B1    e8 6a 9d f8 ff                                   call    sub_46E020    ; code_refs=[0x0046E020]
  0x004E42B6    50                                               push    eax; int
  0x004E42B7    e8 14 a0 f8 ff                                   call    sub_46E2D0    ; code_refs=[0x0046E2D0]
  0x004E42BC    83 c4 0c                                         add     esp, 0Ch
  0x004E42BF    33 c0                                            xor     eax, eax
  0x004E42C1    e9 49 01 00 00                                   jmp     loc_4E440F    ; code_refs=[0x004E440F]

loc_4E42C6: ; preds=loc_4E4260 succs=loc_4E42EB,loc_4E42FC
  0x004E42C6    57                                               push    edi; Stream
  0x004E42C7    6a 01                                            push    1; ElementCount
  0x004E42C9    8d 54 24 14                                      lea     edx, [esp+124h+Buffer]
  0x004E42CD    6a 04                                            push    4; ElementSize
  0x004E42CF    52                                               push    edx; Buffer
  0x004E42D0    c7 44 24 1c 00 00 00 00                          mov     [esp+12Ch+Buffer], 0
  0x004E42D8    ff 15 a0 c3 53 00                                call    ds:fread    ; code_refs=[0x0053C3A0] data_refs=[0x0053C3A0]
  0x004E42DE    83 c4 10                                         add     esp, 10h
  0x004E42E1    81 7c 24 0c 53 46 4e 54                          cmp     [esp+11Ch+Buffer], 544E4653h
  0x004E42E9    74 11                                            jz      short loc_4E42FC    ; code_refs=[0x004E42FC]

loc_4E42EB: ; preds=loc_4E42C6 succs=loc_4E440F
  0x004E42EB    57                                               push    edi; Stream
  0x004E42EC    ff 15 10 c4 53 00                                call    ds:fclose    ; code_refs=[0x0053C410] data_refs=[0x0053C410]
  0x004E42F2    83 c4 04                                         add     esp, 4
  0x004E42F5    33 c0                                            xor     eax, eax
  0x004E42F7    e9 13 01 00 00                                   jmp     loc_4E440F    ; code_refs=[0x004E440F]

loc_4E42FC: ; preds=loc_4E42C6 succs=loc_4E4305
  0x004E42FC    56                                               push    esi
  0x004E42FD    8b 35 28 c3 53 00                                mov     esi, ds:fgetc    ; data_refs=[0x0053C328]
  0x004E4303    33 ed                                            xor     ebp, ebp

loc_4E4305: ; preds=loc_4E42FC,loc_4E4313 succs=loc_4E4313,loc_4E431C
  0x004E4305    57                                               push    edi; Stream
  0x004E4306    ff d6                                            call    esi ; fgetc    ; code_refs=[0x0053C328]
  0x004E4308    83 c4 04                                         add     esp, 4
  0x004E430B    88 44 2c 1c                                      mov     [esp+ebp+120h+var_104], al
  0x004E430F    84 c0                                            test    al, al
  0x004E4311    74 09                                            jz      short loc_4E431C    ; code_refs=[0x004E431C]

loc_4E4313: ; preds=loc_4E4305 succs=loc_4E4305,loc_4E431C
  0x004E4313    45                                               inc     ebp
  0x004E4314    81 fd 00 01 00 00                                cmp     ebp, 100h
  0x004E431A    75 e9                                            jnz     short loc_4E4305    ; code_refs=[0x004E4305]

loc_4E431C: ; preds=loc_4E4305,loc_4E4313 succs=loc_4E4326,loc_4E432A
  0x004E431C    8b 44 24 14                                      mov     eax, [esp+120h+var_10C]
  0x004E4320    8b cb                                            mov     ecx, ebx
  0x004E4322    85 c0                                            test    eax, eax
  0x004E4324    75 04                                            jnz     short loc_4E432A    ; code_refs=[0x004E432A]

loc_4E4326: ; preds=loc_4E431C succs=loc_4E432A
  0x004E4326    8d 44 24 1c                                      lea     eax, [esp+120h+var_104]

loc_4E432A: ; preds=loc_4E431C,loc_4E4326 succs=loc_4E4332
  0x004E432A    50                                               push    eax
  0x004E432B    e8 b0 fe ff ff                                   call    sub_4E41E0    ; code_refs=[0x004E41E0]
  0x004E4330    33 ed                                            xor     ebp, ebp

loc_4E4332: ; preds=loc_4E432A,loc_4E433C succs=loc_4E433C,loc_4E4345
  0x004E4332    57                                               push    edi; Stream
  0x004E4333    ff d6                                            call    esi ; fgetc    ; code_refs=[0x0053C328]
  0x004E4335    83 c4 04                                         add     esp, 4
  0x004E4338    84 c0                                            test    al, al
  0x004E433A    74 09                                            jz      short loc_4E4345    ; code_refs=[0x004E4345]

loc_4E433C: ; preds=loc_4E4332 succs=loc_4E4332,loc_4E4345
  0x004E433C    45                                               inc     ebp
  0x004E433D    81 fd 00 01 00 00                                cmp     ebp, 100h
  0x004E4343    75 ed                                            jnz     short loc_4E4332    ; code_refs=[0x004E4332]

loc_4E4345: ; preds=loc_4E4332,loc_4E433C succs=loc_4E4357,loc_4E437D
  0x004E4345    8b 74 24 18                                      mov     esi, dword ptr [esp+120h+ArgList]
  0x004E4349    8b ce                                            mov     ecx, esi; String2
  0x004E434B    e8 c0 52 ff ff                                   call    sub_4D9610    ; code_refs=[0x004D9610]
  0x004E4350    89 03                                            mov     [ebx], eax
  0x004E4352    83 f8 ff                                         cmp     eax, 0FFFFFFFFh
  0x004E4355    75 26                                            jnz     short loc_4E437D    ; code_refs=[0x004E437D]

loc_4E4357: ; preds=loc_4E4345 succs=loc_4E440E
  0x004E4357    8b 4b 08                                         mov     ecx, [ebx+8]
  0x004E435A    51                                               push    ecx
  0x004E435B    56                                               push    esi; ArgList
  0x004E435C    68 44 60 54 00                                   push    offset aCanTLoadTextur; "Can't load texture '%s' for font '%s'"    ; data_refs=[0x00546044]
  0x004E4361    e8 ba 9c f8 ff                                   call    sub_46E020    ; code_refs=[0x0046E020]
  0x004E4366    50                                               push    eax; int
  0x004E4367    e8 a4 9f f8 ff                                   call    sub_46E310    ; code_refs=[0x0046E310]
  0x004E436C    57                                               push    edi; Stream
  0x004E436D    ff 15 10 c4 53 00                                call    ds:fclose    ; code_refs=[0x0053C410] data_refs=[0x0053C410]
  0x004E4373    83 c4 14                                         add     esp, 14h
  0x004E4376    33 c0                                            xor     eax, eax
  0x004E4378    e9 91 00 00 00                                   jmp     loc_4E440E    ; code_refs=[0x004E440E]

loc_4E437D: ; preds=loc_4E4345 succs=loc_4E43D0
  0x004E437D    8b 35 a0 c3 53 00                                mov     esi, ds:fread    ; data_refs=[0x0053C3A0]
  0x004E4383    57                                               push    edi; Stream
  0x004E4384    6a 01                                            push    1; ElementCount
  0x004E4386    8d 53 0c                                         lea     edx, [ebx+0Ch]
  0x004E4389    6a 04                                            push    4; ElementSize
  0x004E438B    52                                               push    edx; Buffer
  0x004E438C    ff d6                                            call    esi ; fread    ; code_refs=[0x0053C3A0]
  0x004E438E    57                                               push    edi; Stream
  0x004E438F    6a 01                                            push    1; ElementCount
  0x004E4391    8d 6b 10                                         lea     ebp, [ebx+10h]
  0x004E4394    6a 04                                            push    4; ElementSize
  0x004E4396    55                                               push    ebp; Buffer
  0x004E4397    ff d6                                            call    esi ; fread    ; code_refs=[0x0053C3A0]
  0x004E4399    83 c4 20                                         add     esp, 20h
  0x004E439C    ba db 03 00 00                                   mov     edx, 3DBh
  0x004E43A1    b9 e4 5f 54 00                                   mov     ecx, offset aShareclientsev_40; "..\\ShareClientSeverCode\\Interface\\Fo"...    ; data_refs=[0x00545FE4]
  0x004E43A6    e8 a5 6a 04 00                                   call    sub_52AE50    ; code_refs=[0x0052AE50]
  0x004E43AB    68 00 1c 00 00                                   push    1C00h; Size
  0x004E43B0    e8 7b 77 04 00                                   call    sub_52BB30    ; code_refs=[0x0052BB30]
  0x004E43B5    68 00 1c 00 00                                   push    1C00h; Size
  0x004E43BA    6a 00                                            push    0; Val
  0x004E43BC    50                                               push    eax; void *
  0x004E43BD    89 43 04                                         mov     [ebx+4], eax
  0x004E43C0    e8 d5 a0 04 00                                   call    memset    ; code_refs=[0x0052E49A]
  0x004E43C5    83 c4 10                                         add     esp, 10h
  0x004E43C8    be 80 03 00 00                                   mov     esi, 380h
  0x004E43CD    8d 49 00                                         lea     ecx, [ecx+0]

loc_4E43D0: ; preds=loc_4E437D,loc_4E43D0 succs=loc_4E43FF,loc_4E43D0
  0x004E43D0    8b 43 04                                         mov     eax, [ebx+4]
  0x004E43D3    57                                               push    edi; Stream
  0x004E43D4    6a 01                                            push    1; ElementCount
  0x004E43D6    03 c6                                            add     eax, esi
  0x004E43D8    6a 1c                                            push    1Ch; ElementSize
  0x004E43DA    50                                               push    eax; Buffer
  0x004E43DB    ff 15 a0 c3 53 00                                call    ds:fread    ; code_refs=[0x0053C3A0] data_refs=[0x0053C3A0]
  0x004E43E1    8b 4b 04                                         mov     ecx, [ebx+4]
  0x004E43E4    66 8b 55 00                                      mov     dx, [ebp+0]
  0x004E43E8    66 29 54 0e 06                                   sub     [esi+ecx+6], dx
  0x004E43ED    8d 44 0e 06                                      lea     eax, [esi+ecx+6]
  0x004E43F1    83 c6 1c                                         add     esi, 1Ch
  0x004E43F4    83 c4 10                                         add     esp, 10h
  0x004E43F7    81 fe 00 1c 00 00                                cmp     esi, 1C00h
  0x004E43FD    72 d1                                            jb      short loc_4E43D0    ; code_refs=[0x004E43D0]

loc_4E43FF: ; preds=loc_4E43D0 succs=loc_4E440E
  0x004E43FF    57                                               push    edi; Stream
  0x004E4400    ff 15 10 c4 53 00                                call    ds:fclose    ; code_refs=[0x0053C410] data_refs=[0x0053C410]
  0x004E4406    83 c4 04                                         add     esp, 4
  0x004E4409    b8 01 00 00 00                                   mov     eax, 1

loc_4E440E: ; preds=loc_4E4357,loc_4E43FF succs=loc_4E440F
  0x004E440E    5e                                               pop     esi

loc_4E440F: ; preds=loc_4E42AB,loc_4E42EB,loc_4E440E succs=
  0x004E440F    8b 8c 24 18 01 00 00                             mov     ecx, [esp+11Ch+var_4]
  0x004E4416    5f                                               pop     edi
  0x004E4417    5d                                               pop     ebp
  0x004E4418    5b                                               pop     ebx
  0x004E4419    33 cc                                            xor     ecx, esp
  0x004E441B    e8 80 a0 04 00                                   call    sub_52E4A0    ; code_refs=[0x0052E4A0]
  0x004E4420    81 c4 10 01 00 00                                add     esp, 110h
  0x004E4426    c2 0c 00                                         retn    0Ch
; END_FUNC 0x004E4260 sub_4E4260


; ======================================================================================================================
; FUNC 0x004F9E60 sub_4F9E60 size=780 segment=.text
; STRINGS:
;   0x00564490 'N'
;   0x00546998 'Effects\\*.ui'
;   0x00546988 'loadscreen.ui'
;   0x0053E488 'cts\\'
;   0x0053E484 'Effects\\'
;   0x0054680C '..\\ShareClientSeverCode\\Interface\\Interface.cpp'
;   0x0054697C 'windowUI'
;   0x0054694C 'WindowUI(%s,%d %d). Window name not specified.'
;   0x0053CF20 'list<T> too long'
;   0x0055AD90 '"'
; ----------------------------------------------------------------------------------------------------------------------

loc_4F9E60: ; preds= succs=loc_4F9EE5,loc_4FA137
  0x004F9E60    55                                               push    ebp
  0x004F9E61    8b ec                                            mov     ebp, esp
  0x004F9E63    83 e4 f8                                         and     esp, 0FFFFFFF8h
  0x004F9E66    6a ff                                            push    0FFFFFFFFh
  0x004F9E68    68 1e 35 53 00                                   push    offset SEH_4B9E60    ; data_refs=[0x0053351E]
  0x004F9E6D    64 a1 00 00 00 00                                mov     eax, large fs:0
  0x004F9E73    50                                               push    eax
  0x004F9E74    81 ec 64 02 00 00                                sub     esp, 264h
  0x004F9E7A    a1 90 44 56 00                                   mov     eax, dword_564490    ; data_refs=[0x00564490]
  0x004F9E7F    33 c4                                            xor     eax, esp
  0x004F9E81    89 84 24 5c 02 00 00                             mov     [esp+270h+var_14], eax
  0x004F9E88    56                                               push    esi
  0x004F9E89    57                                               push    edi
  0x004F9E8A    a1 90 44 56 00                                   mov     eax, dword_564490    ; data_refs=[0x00564490]
  0x004F9E8F    33 c4                                            xor     eax, esp
  0x004F9E91    50                                               push    eax
  0x004F9E92    8d 84 24 70 02 00 00                             lea     eax, [esp+27Ch+var_C]
  0x004F9E99    64 a3 00 00 00 00                                mov     large fs:0, eax
  0x004F9E9F    b9 98 69 54 00                                   mov     ecx, offset aEffectsUi; "Effects\\*.ui"    ; data_refs=[0x00546998]
  0x004F9EA4    e8 f7 b8 f6 ff                                   call    sub_4657A0    ; code_refs=[0x004657A0]
  0x004F9EA9    89 44 24 0c                                      mov     [esp+27Ch+var_270], eax
  0x004F9EAD    8d 44 24 24                                      lea     eax, [esp+27Ch+FindFileData]
  0x004F9EB1    50                                               push    eax; lpFindFileData
  0x004F9EB2    68 98 69 54 00                                   push    offset aEffectsUi; "Effects\\*.ui"    ; data_refs=[0x00546998]
  0x004F9EB7    ff 15 e4 c0 53 00                                call    ds:FindFirstFileA    ; code_refs=[0x0053C0E4] data_refs=[0x0053C0E4]
  0x004F9EBD    db 44 24 0c                                      fild    [esp+27Ch+var_270]
  0x004F9EC1    d9 e8                                            fld1
  0x004F9EC3    8b f0                                            mov     esi, eax
  0x004F9EC5    de f1                                            fdivrp  st(1), st
  0x004F9EC7    33 c0                                            xor     eax, eax
  0x004F9EC9    83 fe ff                                         cmp     esi, 0FFFFFFFFh
  0x004F9ECC    0f 95 c0                                         setnz   al
  0x004F9ECF    89 74 24 1c                                      mov     [esp+27Ch+var_260], esi
  0x004F9ED3    d9 5c 24 20                                      fstp    [esp+27Ch+var_25C]
  0x004F9ED7    d9 ee                                            fldz
  0x004F9ED9    d9 5c 24 0c                                      fstp    [esp+27Ch+var_270]
  0x004F9EDD    85 c0                                            test    eax, eax
  0x004F9EDF    0f 84 52 02 00 00                                jz      loc_4FA137    ; code_refs=[0x004FA137]

loc_4F9EE5: ; preds=loc_4F9E60,loc_4FA123 succs=loc_4F9EF0,loc_4FA123
  0x004F9EE5    f6 44 24 24 10                                   test    byte ptr [esp+27Ch+FindFileData.dwFileAttributes], 10h    ; data_refs=[0x000426EC]
  0x004F9EEA    0f 85 33 02 00 00                                jnz     loc_4FA123    ; code_refs=[0x004FA123]

loc_4F9EF0: ; preds=loc_4F9EE5 succs=loc_4F9F0B,loc_4FA123
  0x004F9EF0    8d 4c 24 50                                      lea     ecx, [esp+27Ch+FindFileData.cFileName]    ; data_refs=[0x000426F4]
  0x004F9EF4    68 88 69 54 00                                   push    offset aLoadscreenUi; "loadscreen.ui"    ; data_refs=[0x00546988]
  0x004F9EF9    51                                               push    ecx; String1
  0x004F9EFA    ff 15 b0 c3 53 00                                call    ds:_stricmp    ; code_refs=[0x0053C3B0] data_refs=[0x0053C3B0]
  0x004F9F00    83 c4 08                                         add     esp, 8
  0x004F9F03    85 c0                                            test    eax, eax
  0x004F9F05    0f 84 18 02 00 00                                jz      loc_4FA123    ; code_refs=[0x004FA123]

loc_4F9F0B: ; preds=loc_4F9EF0 succs=loc_4F9F37
  0x004F9F0B    a1 88 e4 53 00                                   mov     eax, ds:dword_53E488    ; data_refs=[0x0053E488]
  0x004F9F10    8b 15 84 e4 53 00                                mov     edx, ds:dword_53E484    ; data_refs=[0x0053E484]
  0x004F9F16    8a 0d 8c e4 53 00                                mov     cl, ds:byte_53E48C    ; data_refs=[0x0053E48C]
  0x004F9F1C    89 84 24 68 01 00 00                             mov     [esp+27Ch+var_114], eax
  0x004F9F23    8d 44 24 50                                      lea     eax, [esp+27Ch+FindFileData.cFileName]    ; data_refs=[0x000426F4]
  0x004F9F27    89 94 24 64 01 00 00                             mov     dword ptr [esp+27Ch+ArgList], edx
  0x004F9F2E    88 8c 24 6c 01 00 00                             mov     [esp+27Ch+var_110], cl
  0x004F9F35    8b f0                                            mov     esi, eax

loc_4F9F37: ; preds=loc_4F9F0B,loc_4F9F37 succs=loc_4F9F3E,loc_4F9F37
  0x004F9F37    8a 08                                            mov     cl, [eax]
  0x004F9F39    40                                               inc     eax
  0x004F9F3A    84 c9                                            test    cl, cl
  0x004F9F3C    75 f9                                            jnz     short loc_4F9F37    ; code_refs=[0x004F9F37]

loc_4F9F3E: ; preds=loc_4F9F37 succs=loc_4F9F48
  0x004F9F3E    8d bc 24 64 01 00 00                             lea     edi, [esp+27Ch+ArgList]
  0x004F9F45    2b c6                                            sub     eax, esi
  0x004F9F47    4f                                               dec     edi

loc_4F9F48: ; preds=loc_4F9F3E,loc_4F9F48 succs=loc_4F9F50,loc_4F9F48
  0x004F9F48    8a 4f 01                                         mov     cl, [edi+1]
  0x004F9F4B    47                                               inc     edi
  0x004F9F4C    84 c9                                            test    cl, cl
  0x004F9F4E    75 f8                                            jnz     short loc_4F9F48    ; code_refs=[0x004F9F48]

loc_4F9F50: ; preds=loc_4F9F48 succs=loc_4F9F8D,loc_4F9F98
  0x004F9F50    8b c8                                            mov     ecx, eax
  0x004F9F52    c1 e9 02                                         shr     ecx, 2
  0x004F9F55    f3 a5                                            rep movsd
  0x004F9F57    8b c8                                            mov     ecx, eax
  0x004F9F59    83 e1 03                                         and     ecx, 3
  0x004F9F5C    f3 a4                                            rep movsb
  0x004F9F5E    ba e6 01 00 00                                   mov     edx, 1E6h
  0x004F9F63    b9 0c 68 54 00                                   mov     ecx, offset aShareclientsev_36; "..\\ShareClientSeverCode\\Interface\\In"...    ; data_refs=[0x0054680C]
  0x004F9F68    e8 e3 0e 03 00                                   call    sub_52AE50    ; code_refs=[0x0052AE50]
  0x004F9F6D    68 20 04 00 00                                   push    420h; Size
  0x004F9F72    e8 b9 1b 03 00                                   call    sub_52BB30    ; code_refs=[0x0052BB30]
  0x004F9F77    83 c4 04                                         add     esp, 4
  0x004F9F7A    89 44 24 10                                      mov     [esp+27Ch+var_26C], eax
  0x004F9F7E    c7 84 24 78 02 00 00 00 00 00 00                 mov     [esp+27Ch+var_4], 0
  0x004F9F89    85 c0                                            test    eax, eax
  0x004F9F8B    74 0b                                            jz      short loc_4F9F98    ; code_refs=[0x004F9F98]

loc_4F9F8D: ; preds=loc_4F9F50 succs=loc_4F9F9A
  0x004F9F8D    8b c8                                            mov     ecx, eax
  0x004F9F8F    e8 7c 94 fd ff                                   call    sub_4D3410    ; code_refs=[0x004D3410]
  0x004F9F94    8b f8                                            mov     edi, eax
  0x004F9F96    eb 02                                            jmp     short loc_4F9F9A    ; code_refs=[0x004F9F9A]

loc_4F9F98: ; preds=loc_4F9F50 succs=loc_4F9F9A
  0x004F9F98    33 ff                                            xor     edi, edi

loc_4F9F9A: ; preds=loc_4F9F8D,loc_4F9F98 succs=loc_4F9FD6,loc_4FA0D6
  0x004F9F9A    8d 94 24 64 01 00 00                             lea     edx, [esp+27Ch+ArgList]
  0x004F9FA1    52                                               push    edx; Str
  0x004F9FA2    8b cf                                            mov     ecx, edi
  0x004F9FA4    c7 84 24 7c 02 00 00 ff ff ff ff                 mov     [esp+280h+var_4], 0FFFFFFFFh
  0x004F9FAF    e8 ac a1 fd ff                                   call    sub_4D4160    ; code_refs=[0x004D4160]
  0x004F9FB4    6a 00                                            push    0
  0x004F9FB6    8b cf                                            mov     ecx, edi
  0x004F9FB8    e8 b3 a0 fd ff                                   call    sub_4D4070    ; code_refs=[0x004D4070]
  0x004F9FBD    8d 44 24 14                                      lea     eax, [esp+27Ch+var_268]
  0x004F9FC1    50                                               push    eax; int
  0x004F9FC2    68 7c 69 54 00                                   push    offset aWindowui; "windowUI"    ; data_refs=[0x0054697C]
  0x004F9FC7    8b cf                                            mov     ecx, edi
  0x004F9FC9    e8 12 a1 fd ff                                   call    sub_4D40E0    ; code_refs=[0x004D40E0]
  0x004F9FCE    85 c0                                            test    eax, eax
  0x004F9FD0    0f 84 00 01 00 00                                jz      loc_4FA0D6    ; code_refs=[0x004FA0D6]

loc_4F9FD6: ; preds=loc_4F9F9A,loc_4FA0BD succs=loc_4F9FFD,loc_4FA01C
  0x004F9FD6    33 c9                                            xor     ecx, ecx
  0x004F9FD8    e8 63 97 01 00                                   call    sub_513740    ; code_refs=[0x00513740]
  0x004F9FDD    8b f0                                            mov     esi, eax
  0x004F9FDF    8b 16                                            mov     edx, [esi]
  0x004F9FE1    8b 12                                            mov     edx, [edx]
  0x004F9FE3    8d 44 24 14                                      lea     eax, [esp+27Ch+var_268]
  0x004F9FE7    50                                               push    eax
  0x004F9FE8    57                                               push    edi
  0x004F9FE9    8d 8c 24 6c 01 00 00                             lea     ecx, [esp+284h+ArgList]
  0x004F9FF0    51                                               push    ecx
  0x004F9FF1    8b ce                                            mov     ecx, esi
  0x004F9FF3    89 74 24 1c                                      mov     [esp+288h+var_26C], esi
  0x004F9FF7    ff d2                                            call    edx
  0x004F9FF9    85 c0                                            test    eax, eax
  0x004F9FFB    75 1f                                            jnz     short loc_4FA01C    ; code_refs=[0x004FA01C]

loc_4F9FFD: ; preds=loc_4F9FD6 succs=loc_4FA0BD
  0x004F9FFD    ba f7 01 00 00                                   mov     edx, 1F7h
  0x004FA002    b9 0c 68 54 00                                   mov     ecx, offset aShareclientsev_36; "..\\ShareClientSeverCode\\Interface\\In"...    ; data_refs=[0x0054680C]
  0x004FA007    e8 44 0e 03 00                                   call    sub_52AE50    ; code_refs=[0x0052AE50]
  0x004FA00C    8b 06                                            mov     eax, [esi]
  0x004FA00E    8b 50 2c                                         mov     edx, [eax+2Ch]
  0x004FA011    6a 01                                            push    1
  0x004FA013    8b ce                                            mov     ecx, esi
  0x004FA015    ff d2                                            call    edx
  0x004FA017    e9 a1 00 00 00                                   jmp     loc_4FA0BD    ; code_refs=[0x004FA0BD]

loc_4FA01C: ; preds=loc_4F9FD6 succs=loc_4FA02B,loc_4FA02D
  0x004FA01C    83 be 8c 01 00 00 10                             cmp     dword ptr [esi+18Ch], 10h
  0x004FA023    8d 86 78 01 00 00                                lea     eax, [esi+178h]
  0x004FA029    72 02                                            jb      short loc_4FA02D    ; code_refs=[0x004FA02D]

loc_4FA02B: ; preds=loc_4FA01C succs=loc_4FA02D
  0x004FA02B    8b 00                                            mov     eax, [eax]

loc_4FA02D: ; preds=loc_4FA01C,loc_4FA02B succs=loc_4FA032
  0x004FA02D    b9 6a ce 53 00                                   mov     ecx, offset name    ; data_refs=[0x0053CE6A]

loc_4FA032: ; preds=loc_4FA02D,loc_4FA044 succs=loc_4FA038,loc_4FA052
  0x004FA032    8a 10                                            mov     dl, [eax]
  0x004FA034    3a 11                                            cmp     dl, [ecx]
  0x004FA036    75 1a                                            jnz     short loc_4FA052    ; code_refs=[0x004FA052]

loc_4FA038: ; preds=loc_4FA032 succs=loc_4FA03C,loc_4FA04E
  0x004FA038    84 d2                                            test    dl, dl
  0x004FA03A    74 12                                            jz      short loc_4FA04E    ; code_refs=[0x004FA04E]

loc_4FA03C: ; preds=loc_4FA038 succs=loc_4FA044,loc_4FA052
  0x004FA03C    8a 50 01                                         mov     dl, [eax+1]
  0x004FA03F    3a 51 01                                         cmp     dl, [ecx+1]
  0x004FA042    75 0e                                            jnz     short loc_4FA052    ; code_refs=[0x004FA052]

loc_4FA044: ; preds=loc_4FA03C succs=loc_4FA032,loc_4FA04E
  0x004FA044    83 c0 02                                         add     eax, 2
  0x004FA047    83 c1 02                                         add     ecx, 2
  0x004FA04A    84 d2                                            test    dl, dl
  0x004FA04C    75 e4                                            jnz     short loc_4FA032    ; code_refs=[0x004FA032]

loc_4FA04E: ; preds=loc_4FA038,loc_4FA044 succs=loc_4FA057
  0x004FA04E    33 c0                                            xor     eax, eax
  0x004FA050    eb 05                                            jmp     short loc_4FA057    ; code_refs=[0x004FA057]

loc_4FA052: ; preds=loc_4FA032,loc_4FA03C succs=loc_4FA057
  0x004FA052    1b c0                                            sbb     eax, eax
  0x004FA054    83 d8 ff                                         sbb     eax, 0FFFFFFFFh

loc_4FA057: ; preds=loc_4FA04E,loc_4FA052 succs=loc_4FA05B,loc_4FA080
  0x004FA057    85 c0                                            test    eax, eax
  0x004FA059    75 25                                            jnz     short loc_4FA080    ; code_refs=[0x004FA080]

loc_4FA05B: ; preds=loc_4FA057 succs=loc_4FA080
  0x004FA05B    8b 44 24 18                                      mov     eax, dword ptr [esp+27Ch+var_264]
  0x004FA05F    8b 4c 24 14                                      mov     ecx, [esp+27Ch+var_268]
  0x004FA063    50                                               push    eax
  0x004FA064    51                                               push    ecx
  0x004FA065    8d 94 24 6c 01 00 00                             lea     edx, [esp+284h+ArgList]
  0x004FA06C    52                                               push    edx; ArgList
  0x004FA06D    68 4c 69 54 00                                   push    offset aWindowuiSDDWin; "WindowUI(%s,%d %d). Window name not spe"...    ; data_refs=[0x0054694C]
  0x004FA072    e8 a9 3f f7 ff                                   call    sub_46E020    ; code_refs=[0x0046E020]
  0x004FA077    50                                               push    eax; int
  0x004FA078    e8 93 42 f7 ff                                   call    sub_46E310    ; code_refs=[0x0046E310]
  0x004FA07D    83 c4 14                                         add     esp, 14h

loc_4FA080: ; preds=loc_4FA057,loc_4FA05B succs=loc_4FA0B0,loc_4FA161
  0x004FA080    a1 80 98 ba 04                                   mov     eax, dword_4BA9880    ; data_refs=[0x04BA9880]
  0x004FA085    8b 50 04                                         mov     edx, [eax+4]
  0x004FA088    8d 70 04                                         lea     esi, [eax+4]
  0x004FA08B    8d 4c 24 10                                      lea     ecx, [esp+27Ch+var_26C]
  0x004FA08F    51                                               push    ecx
  0x004FA090    52                                               push    edx
  0x004FA091    50                                               push    eax
  0x004FA092    b9 80 98 ba 04                                   mov     ecx, offset dword_4BA9880    ; data_refs=[0x04BA9880]
  0x004FA097    e8 04 ec ff ff                                   call    sub_4F8CA0    ; code_refs=[0x004F8CA0]
  0x004FA09C    b9 fe ff ff 3f                                   mov     ecx, 3FFFFFFEh
  0x004FA0A1    2b 0d 84 98 ba 04                                sub     ecx, dword_4BA9884    ; data_refs=[0x04BA9884]
  0x004FA0A7    83 f9 01                                         cmp     ecx, 1
  0x004FA0AA    0f 82 b1 00 00 00                                jb      loc_4FA161    ; code_refs=[0x004FA161]

loc_4FA0B0: ; preds=loc_4FA080 succs=loc_4FA0BD
  0x004FA0B0    ff 05 84 98 ba 04                                inc     dword_4BA9884    ; data_refs=[0x04BA9884]
  0x004FA0B6    89 06                                            mov     [esi], eax
  0x004FA0B8    8b 50 04                                         mov     edx, [eax+4]
  0x004FA0BB    89 02                                            mov     [edx], eax

loc_4FA0BD: ; preds=loc_4F9FFD,loc_4FA0B0 succs=loc_4F9FD6,loc_4FA0D6
  0x004FA0BD    8d 44 24 14                                      lea     eax, [esp+27Ch+var_268]
  0x004FA0C1    50                                               push    eax; int
  0x004FA0C2    68 7c 69 54 00                                   push    offset aWindowui; "windowUI"    ; data_refs=[0x0054697C]
  0x004FA0C7    8b cf                                            mov     ecx, edi
  0x004FA0C9    e8 12 a0 fd ff                                   call    sub_4D40E0    ; code_refs=[0x004D40E0]
  0x004FA0CE    85 c0                                            test    eax, eax
  0x004FA0D0    0f 85 00 ff ff ff                                jnz     loc_4F9FD6    ; code_refs=[0x004F9FD6]

loc_4FA0D6: ; preds=loc_4F9F9A,loc_4FA0BD succs=loc_4FA0E9,loc_4FA0F9
  0x004FA0D6    ba 09 02 00 00                                   mov     edx, 209h
  0x004FA0DB    b9 0c 68 54 00                                   mov     ecx, offset aShareclientsev_36; "..\\ShareClientSeverCode\\Interface\\In"...    ; data_refs=[0x0054680C]
  0x004FA0E0    e8 6b 0d 03 00                                   call    sub_52AE50    ; code_refs=[0x0052AE50]
  0x004FA0E5    85 ff                                            test    edi, edi
  0x004FA0E7    74 10                                            jz      short loc_4FA0F9    ; code_refs=[0x004FA0F9]

loc_4FA0E9: ; preds=loc_4FA0D6 succs=loc_4FA0F9
  0x004FA0E9    8b cf                                            mov     ecx, edi
  0x004FA0EB    e8 30 93 fd ff                                   call    sub_4D3420    ; code_refs=[0x004D3420]
  0x004FA0F0    57                                               push    edi
  0x004FA0F1    e8 ba 19 03 00                                   call    sub_52BAB0    ; code_refs=[0x0052BAB0]
  0x004FA0F6    83 c4 04                                         add     esp, 4

loc_4FA0F9: ; preds=loc_4FA0D6,loc_4FA0E9 succs=loc_4FA123
  0x004FA0F9    d9 44 24 0c                                      fld     [esp+27Ch+var_270]
  0x004FA0FD    d8 44 24 20                                      fadd    [esp+27Ch+var_25C]
  0x004FA101    d9 5c 24 0c                                      fstp    [esp+27Ch+var_270]
  0x004FA105    d9 44 24 0c                                      fld     [esp+27Ch+var_270]
  0x004FA109    dd 05 f8 db 53 00                                fld     ds:dbl_53DBF8    ; data_refs=[0x0053DBF8]
  0x004FA10F    dc c9                                            fmul    st(1), st
  0x004FA111    de c1                                            faddp   st(1), st
  0x004FA113    e8 b8 44 03 00                                   call    __ftol2_sse    ; code_refs=[0x0052E5D0]
  0x004FA118    8b c8                                            mov     ecx, eax
  0x004FA11A    e8 01 73 fa ff                                   call    sub_4A1420    ; code_refs=[0x004A1420]
  0x004FA11F    8b 74 24 1c                                      mov     esi, [esp+27Ch+var_260]

loc_4FA123: ; preds=loc_4F9EE5,loc_4F9EF0,loc_4FA0F9 succs=loc_4F9EE5,loc_4FA137
  0x004FA123    8d 4c 24 24                                      lea     ecx, [esp+27Ch+FindFileData]
  0x004FA127    51                                               push    ecx; lpFindFileData
  0x004FA128    56                                               push    esi; hFindFile
  0x004FA129    ff 15 e0 c0 53 00                                call    ds:FindNextFileA    ; code_refs=[0x0053C0E0] data_refs=[0x0053C0E0]
  0x004FA12F    85 c0                                            test    eax, eax
  0x004FA131    0f 85 ae fd ff ff                                jnz     loc_4F9EE5    ; code_refs=[0x004F9EE5]

loc_4FA137: ; preds=loc_4F9E60,loc_4FA123 succs=
  0x004FA137    56                                               push    esi; hFindFile
  0x004FA138    ff 15 dc c0 53 00                                call    ds:FindClose    ; code_refs=[0x0053C0DC] data_refs=[0x0053C0DC]
  0x004FA13E    8b 8c 24 70 02 00 00                             mov     ecx, dword ptr [esp+27Ch+var_C]
  0x004FA145    64 89 0d 00 00 00 00                             mov     large fs:0, ecx
  0x004FA14C    59                                               pop     ecx
  0x004FA14D    5f                                               pop     edi
  0x004FA14E    5e                                               pop     esi
  0x004FA14F    8b 8c 24 5c 02 00 00                             mov     ecx, [esp+270h+var_14]
  0x004FA156    33 cc                                            xor     ecx, esp
  0x004FA158    e8 43 43 03 00                                   call    sub_52E4A0    ; code_refs=[0x0052E4A0]
  0x004FA15D    8b e5                                            mov     esp, ebp
  0x004FA15F    5d                                               pop     ebp
  0x004FA160    c3                                               retn

loc_4FA161: ; preds=loc_4FA080 succs=
  0x004FA161    68 20 cf 53 00                                   push    offset aListTTooLong; "list<T> too long"    ; data_refs=[0x0053CF20]
  0x004FA166    ff 15 18 c2 53 00                                call    ds:?_Xlength_error@std@@YAXPBD@Z; std::_Xlength_error(char const *)    ; code_refs=[0x0053C218] data_refs=[0x0053C218]

loc_533510:
  0x00533510    8b 85 94 fd ff ff                                mov     eax, [ebp+var_26C]
  0x00533516    50                                               push    eax
  0x00533517    e8 94 85 ff ff                                   call    sub_52BAB0    ; code_refs=[0x0052BAB0]
  0x0053351C    59                                               pop     ecx
  0x0053351D    c3                                               retn

loc_53351E: ; preds= succs=loc_52E5C6
  0x0053351E    8b 54 24 08                                      mov     edx, [esp-4+arg_4]
  0x00533522    8d 82 94 fd ff ff                                lea     eax, [edx-26Ch]
  0x00533528    8b 8a 90 fd ff ff                                mov     ecx, [edx-270h]
  0x0053352E    33 c8                                            xor     ecx, eax
  0x00533530    e8 6b af ff ff                                   call    sub_52E4A0    ; code_refs=[0x0052E4A0]
  0x00533535    83 c0 08                                         add     eax, 8
  0x00533538    8b 4a f8                                         mov     ecx, [edx-8]
  0x0053353B    33 c8                                            xor     ecx, eax
  0x0053353D    e8 5e af ff ff                                   call    sub_52E4A0    ; code_refs=[0x0052E4A0]
  0x00533542    b8 90 ad 55 00                                   mov     eax, offset stru_55AD90    ; data_refs=[0x0055AD90]
  0x00533547    e9 7a b0 ff ff                                   jmp     __CxxFrameHandler3    ; code_refs=[0x0052E5C6]
; END_FUNC 0x004F9E60 sub_4F9E60


; ======================================================================================================================
; FUNC 0x004FC5C0 sub_4FC5C0 size=680 segment=.text
; STRINGS:
;   0x00564490 'N'
;   0x00546AD0 'null'
;   0x00546AC8 'NULL'
;   0x0054680C '..\\ShareClientSeverCode\\Interface\\Interface.cpp'
;   0x00546AB4 'Language\\strings.ui'
;   0x00546AA8 'stringsUI'
;   0x00546AA0 'string'
;   0x0055B03C '"'
; ----------------------------------------------------------------------------------------------------------------------

loc_4FC5C0: ; preds= succs=loc_4FC68B,loc_4FC696
  0x004FC5C0    6a ff                                            push    0FFFFFFFFh
  0x004FC5C2    68 be 37 53 00                                   push    offset SEH_4BC5C0    ; data_refs=[0x005337BE]
  0x004FC5C7    64 a1 00 00 00 00                                mov     eax, large fs:0
  0x004FC5CD    50                                               push    eax
  0x004FC5CE    81 ec 80 00 00 00                                sub     esp, 80h
  0x004FC5D4    a1 90 44 56 00                                   mov     eax, dword_564490    ; data_refs=[0x00564490]
  0x004FC5D9    33 c4                                            xor     eax, esp
  0x004FC5DB    89 44 24 7c                                      mov     [esp+8Ch+var_10], eax
  0x004FC5DF    53                                               push    ebx
  0x004FC5E0    55                                               push    ebp
  0x004FC5E1    56                                               push    esi
  0x004FC5E2    57                                               push    edi
  0x004FC5E3    a1 90 44 56 00                                   mov     eax, dword_564490    ; data_refs=[0x00564490]
  0x004FC5E8    33 c4                                            xor     eax, esp
  0x004FC5EA    50                                               push    eax
  0x004FC5EB    8d 84 24 94 00 00 00                             lea     eax, [esp+0A0h+var_C]
  0x004FC5F2    64 a3 00 00 00 00                                mov     large fs:0, eax
  0x004FC5F8    33 db                                            xor     ebx, ebx
  0x004FC5FA    bf 0f 00 00 00                                   mov     edi, 0Fh
  0x004FC5FF    89 7c 24 6c                                      mov     [esp+0A0h+var_34], edi
  0x004FC603    89 5c 24 68                                      mov     [esp+0A0h+var_38], ebx
  0x004FC607    88 5c 24 58                                      mov     byte ptr [esp+0A0h+var_48], bl
  0x004FC60B    89 bc 24 88 00 00 00                             mov     [esp+0A0h+var_18], edi
  0x004FC612    89 9c 24 84 00 00 00                             mov     [esp+0A0h+var_1C], ebx
  0x004FC619    88 5c 24 74                                      mov     byte ptr [esp+0A0h+var_2C], bl
  0x004FC61D    6a 04                                            push    4; Size
  0x004FC61F    68 d0 6a 54 00                                   push    offset aNull; "null"    ; data_refs=[0x00546AD0]
  0x004FC624    8d 4c 24 60                                      lea     ecx, [esp+0A8h+var_48]
  0x004FC628    89 9c 24 a4 00 00 00                             mov     [esp+0A8h+var_4], ebx
  0x004FC62F    e8 5c a0 f4 ff                                   call    sub_446690    ; code_refs=[0x00446690]
  0x004FC634    6a 04                                            push    4; Size
  0x004FC636    68 c8 6a 54 00                                   push    offset aNull_0; "NULL"    ; data_refs=[0x00546AC8]
  0x004FC63B    8d 4c 24 7c                                      lea     ecx, [esp+0A8h+var_2C]
  0x004FC63F    e8 4c a0 f4 ff                                   call    sub_446690    ; code_refs=[0x00446690]
  0x004FC644    6a 32                                            push    32h ; '2'
  0x004FC646    b9 98 98 ba 04                                   mov     ecx, offset dword_4BA9898    ; data_refs=[0x04BA9898]
  0x004FC64B    e8 e0 fc ff ff                                   call    sub_4FC330    ; code_refs=[0x004FC330]
  0x004FC650    8d 44 24 58                                      lea     eax, [esp+0A0h+var_48]
  0x004FC654    50                                               push    eax
  0x004FC655    b9 98 98 ba 04                                   mov     ecx, offset dword_4BA9898    ; data_refs=[0x04BA9898]
  0x004FC65A    e8 e1 fe ff ff                                   call    sub_4FC540    ; code_refs=[0x004FC540]
  0x004FC65F    ba bc 01 00 00                                   mov     edx, 1BCh
  0x004FC664    b9 0c 68 54 00                                   mov     ecx, offset aShareclientsev_36; "..\\ShareClientSeverCode\\Interface\\In"...    ; data_refs=[0x0054680C]
  0x004FC669    e8 e2 e7 02 00                                   call    sub_52AE50    ; code_refs=[0x0052AE50]
  0x004FC66E    68 20 04 00 00                                   push    420h; Size
  0x004FC673    e8 b8 f4 02 00                                   call    sub_52BB30    ; code_refs=[0x0052BB30]
  0x004FC678    83 c4 04                                         add     esp, 4
  0x004FC67B    89 44 24 1c                                      mov     [esp+0A0h+var_84], eax
  0x004FC67F    c6 84 24 9c 00 00 00 01                          mov     byte ptr [esp+0A0h+var_4], 1
  0x004FC687    3b c3                                            cmp     eax, ebx
  0x004FC689    74 0b                                            jz      short loc_4FC696    ; code_refs=[0x004FC696]

loc_4FC68B: ; preds=loc_4FC5C0 succs=loc_4FC698
  0x004FC68B    8b c8                                            mov     ecx, eax
  0x004FC68D    e8 7e 6d fd ff                                   call    sub_4D3410    ; code_refs=[0x004D3410]
  0x004FC692    8b f0                                            mov     esi, eax
  0x004FC694    eb 02                                            jmp     short loc_4FC698    ; code_refs=[0x004FC698]

loc_4FC696: ; preds=loc_4FC5C0 succs=loc_4FC698
  0x004FC696    33 f6                                            xor     esi, esi

loc_4FC698: ; preds=loc_4FC68B,loc_4FC696 succs=loc_4FC6D2,loc_4FC7E0
  0x004FC698    b9 b4 6a 54 00                                   mov     ecx, offset aLanguageString; "Language\\strings.ui"    ; data_refs=[0x00546AB4]
  0x004FC69D    88 9c 24 9c 00 00 00                             mov     byte ptr [esp+0A0h+var_4], bl
  0x004FC6A4    e8 a7 b5 ff ff                                   call    sub_4F7C50    ; code_refs=[0x004F7C50]
  0x004FC6A9    50                                               push    eax; Str
  0x004FC6AA    8b ce                                            mov     ecx, esi
  0x004FC6AC    e8 af 7a fd ff                                   call    sub_4D4160    ; code_refs=[0x004D4160]
  0x004FC6B1    6a 01                                            push    1; int
  0x004FC6B3    53                                               push    ebx; int
  0x004FC6B4    8d 4c 24 1c                                      lea     ecx, [esp+0A8h+var_8C]
  0x004FC6B8    51                                               push    ecx; int
  0x004FC6B9    68 a8 6a 54 00                                   push    offset aStringsui; "stringsUI"    ; data_refs=[0x00546AA8]
  0x004FC6BE    8b ce                                            mov     ecx, esi
  0x004FC6C0    e8 cb 70 fd ff                                   call    sub_4D3790    ; code_refs=[0x004D3790]
  0x004FC6C5    bd 10 00 00 00                                   mov     ebp, 10h
  0x004FC6CA    85 c0                                            test    eax, eax
  0x004FC6CC    0f 84 0e 01 00 00                                jz      loc_4FC7E0    ; code_refs=[0x004FC7E0]

loc_4FC6D2: ; preds=loc_4FC698 succs=loc_4FC6F2,loc_4FC7D9
  0x004FC6D2    8d 54 24 14                                      lea     edx, [esp+0A0h+var_8C]
  0x004FC6D6    52                                               push    edx
  0x004FC6D7    8b ce                                            mov     ecx, esi
  0x004FC6D9    e8 92 76 fd ff                                   call    sub_4D3D70    ; code_refs=[0x004D3D70]
  0x004FC6DE    68 a0 6a 54 00                                   push    offset aString; "string"    ; data_refs=[0x00546AA0]
  0x004FC6E3    8b ce                                            mov     ecx, esi
  0x004FC6E5    e8 f6 76 fd ff                                   call    sub_4D3DE0    ; code_refs=[0x004D3DE0]
  0x004FC6EA    85 c0                                            test    eax, eax
  0x004FC6EC    0f 84 e7 00 00 00                                jz      loc_4FC7D9    ; code_refs=[0x004FC7D9]

loc_4FC6F2: ; preds=loc_4FC6D2,loc_4FC7C5 succs=loc_4FC707,loc_4FC7C5
  0x004FC6F2    68 a8 9f ba 04                                   push    offset unk_4BA9FA8    ; data_refs=[0x04BA9FA8]
  0x004FC6F7    53                                               push    ebx
  0x004FC6F8    8b ce                                            mov     ecx, esi
  0x004FC6FA    e8 21 75 fd ff                                   call    sub_4D3C20    ; code_refs=[0x004D3C20]
  0x004FC6FF    85 c0                                            test    eax, eax
  0x004FC701    0f 84 be 00 00 00                                jz      loc_4FC7C5    ; code_refs=[0x004FC7C5]

loc_4FC707: ; preds=loc_4FC6F2 succs=loc_4FC71D,loc_4FC7C5
  0x004FC707    68 a8 9b ba 04                                   push    offset unk_4BA9BA8    ; data_refs=[0x04BA9BA8]
  0x004FC70C    6a 01                                            push    1
  0x004FC70E    8b ce                                            mov     ecx, esi
  0x004FC710    e8 ab 75 fd ff                                   call    sub_4D3CC0    ; code_refs=[0x004D3CC0]
  0x004FC715    85 c0                                            test    eax, eax
  0x004FC717    0f 84 a8 00 00 00                                jz      loc_4FC7C5    ; code_refs=[0x004FC7C5]

loc_4FC71D: ; preds=loc_4FC707 succs=loc_4FC745
  0x004FC71D    89 7c 24 34                                      mov     [esp+0A0h+var_6C], edi
  0x004FC721    89 5c 24 30                                      mov     [esp+0A0h+var_70], ebx
  0x004FC725    88 5c 24 20                                      mov     byte ptr [esp+0A0h+var_80], bl
  0x004FC729    89 7c 24 50                                      mov     [esp+0A0h+var_50], edi
  0x004FC72D    89 5c 24 4c                                      mov     [esp+0A0h+var_54], ebx
  0x004FC731    88 5c 24 3c                                      mov     byte ptr [esp+0A0h+var_64], bl
  0x004FC735    b8 a8 9f ba 04                                   mov     eax, offset unk_4BA9FA8    ; data_refs=[0x04BA9FA8]
  0x004FC73A    c6 84 24 9c 00 00 00 02                          mov     byte ptr [esp+0A0h+var_4], 2
  0x004FC742    8d 50 01                                         lea     edx, [eax+1]

loc_4FC745: ; preds=loc_4FC71D,loc_4FC745 succs=loc_4FC74C,loc_4FC745
  0x004FC745    8a 08                                            mov     cl, [eax]
  0x004FC747    40                                               inc     eax
  0x004FC748    3a cb                                            cmp     cl, bl
  0x004FC74A    75 f9                                            jnz     short loc_4FC745    ; code_refs=[0x004FC745]

loc_4FC74C: ; preds=loc_4FC745 succs=loc_4FC765
  0x004FC74C    2b c2                                            sub     eax, edx
  0x004FC74E    50                                               push    eax; Size
  0x004FC74F    68 a8 9f ba 04                                   push    offset unk_4BA9FA8; Src    ; data_refs=[0x04BA9FA8]
  0x004FC754    8d 4c 24 28                                      lea     ecx, [esp+0A8h+var_80]
  0x004FC758    e8 33 9f f4 ff                                   call    sub_446690    ; code_refs=[0x00446690]
  0x004FC75D    b8 a8 9b ba 04                                   mov     eax, offset unk_4BA9BA8    ; data_refs=[0x04BA9BA8]
  0x004FC762    8d 50 01                                         lea     edx, [eax+1]

loc_4FC765: ; preds=loc_4FC74C,loc_4FC765 succs=loc_4FC76C,loc_4FC765
  0x004FC765    8a 08                                            mov     cl, [eax]
  0x004FC767    40                                               inc     eax
  0x004FC768    3a cb                                            cmp     cl, bl
  0x004FC76A    75 f9                                            jnz     short loc_4FC765    ; code_refs=[0x004FC765]

loc_4FC76C: ; preds=loc_4FC765 succs=loc_4FC799,loc_4FC7A6
  0x004FC76C    2b c2                                            sub     eax, edx
  0x004FC76E    50                                               push    eax; Size
  0x004FC76F    68 a8 9b ba 04                                   push    offset unk_4BA9BA8; Src    ; data_refs=[0x04BA9BA8]
  0x004FC774    8d 4c 24 44                                      lea     ecx, [esp+0A8h+var_64]
  0x004FC778    e8 13 9f f4 ff                                   call    sub_446690    ; code_refs=[0x00446690]
  0x004FC77D    8d 44 24 20                                      lea     eax, [esp+0A0h+var_80]
  0x004FC781    50                                               push    eax
  0x004FC782    b9 98 98 ba 04                                   mov     ecx, offset dword_4BA9898    ; data_refs=[0x04BA9898]
  0x004FC787    e8 b4 fd ff ff                                   call    sub_4FC540    ; code_refs=[0x004FC540]
  0x004FC78C    88 9c 24 9c 00 00 00                             mov     byte ptr [esp+0A0h+var_4], bl
  0x004FC793    39 6c 24 50                                      cmp     [esp+0A0h+var_50], ebp
  0x004FC797    72 0d                                            jb      short loc_4FC7A6    ; code_refs=[0x004FC7A6]

loc_4FC799: ; preds=loc_4FC76C succs=loc_4FC7A6
  0x004FC799    8b 4c 24 3c                                      mov     ecx, [esp+0A0h+var_64]
  0x004FC79D    51                                               push    ecx
  0x004FC79E    e8 0d f3 02 00                                   call    sub_52BAB0    ; code_refs=[0x0052BAB0]
  0x004FC7A3    83 c4 04                                         add     esp, 4

loc_4FC7A6: ; preds=loc_4FC76C,loc_4FC799 succs=loc_4FC7B8,loc_4FC7C5
  0x004FC7A6    89 7c 24 50                                      mov     [esp+0A0h+var_50], edi
  0x004FC7AA    89 5c 24 4c                                      mov     [esp+0A0h+var_54], ebx
  0x004FC7AE    88 5c 24 3c                                      mov     byte ptr [esp+0A0h+var_64], bl
  0x004FC7B2    39 6c 24 34                                      cmp     [esp+0A0h+var_6C], ebp
  0x004FC7B6    72 0d                                            jb      short loc_4FC7C5    ; code_refs=[0x004FC7C5]

loc_4FC7B8: ; preds=loc_4FC7A6 succs=loc_4FC7C5
  0x004FC7B8    8b 54 24 20                                      mov     edx, [esp+0A0h+var_80]
  0x004FC7BC    52                                               push    edx
  0x004FC7BD    e8 ee f2 02 00                                   call    sub_52BAB0    ; code_refs=[0x0052BAB0]
  0x004FC7C2    83 c4 04                                         add     esp, 4

loc_4FC7C5: ; preds=loc_4FC6F2,loc_4FC707,loc_4FC7A6,loc_4FC7B8 succs=loc_4FC6F2,loc_4FC7D9
  0x004FC7C5    68 a0 6a 54 00                                   push    offset aString; "string"    ; data_refs=[0x00546AA0]
  0x004FC7CA    8b ce                                            mov     ecx, esi
  0x004FC7CC    e8 0f 76 fd ff                                   call    sub_4D3DE0    ; code_refs=[0x004D3DE0]
  0x004FC7D1    85 c0                                            test    eax, eax
  0x004FC7D3    0f 85 19 ff ff ff                                jnz     loc_4FC6F2    ; code_refs=[0x004FC6F2]

loc_4FC7D9: ; preds=loc_4FC6D2,loc_4FC7C5 succs=loc_4FC7E0
  0x004FC7D9    8b ce                                            mov     ecx, esi
  0x004FC7DB    e8 f0 75 fd ff                                   call    sub_4D3DD0    ; code_refs=[0x004D3DD0]

loc_4FC7E0: ; preds=loc_4FC698,loc_4FC7D9 succs=loc_4FC7F3,loc_4FC803
  0x004FC7E0    ba db 01 00 00                                   mov     edx, 1DBh
  0x004FC7E5    b9 0c 68 54 00                                   mov     ecx, offset aShareclientsev_36; "..\\ShareClientSeverCode\\Interface\\In"...    ; data_refs=[0x0054680C]
  0x004FC7EA    e8 61 e6 02 00                                   call    sub_52AE50    ; code_refs=[0x0052AE50]
  0x004FC7EF    3b f3                                            cmp     esi, ebx
  0x004FC7F1    74 10                                            jz      short loc_4FC803    ; code_refs=[0x004FC803]

loc_4FC7F3: ; preds=loc_4FC7E0 succs=loc_4FC803
  0x004FC7F3    8b ce                                            mov     ecx, esi
  0x004FC7F5    e8 26 6c fd ff                                   call    sub_4D3420    ; code_refs=[0x004D3420]
  0x004FC7FA    56                                               push    esi
  0x004FC7FB    e8 b0 f2 02 00                                   call    sub_52BAB0    ; code_refs=[0x0052BAB0]
  0x004FC800    83 c4 04                                         add     esp, 4

loc_4FC803: ; preds=loc_4FC7E0,loc_4FC7F3 succs=loc_4FC80C,loc_4FC819
  0x004FC803    39 ac 24 88 00 00 00                             cmp     [esp+0A0h+var_18], ebp
  0x004FC80A    72 0d                                            jb      short loc_4FC819    ; code_refs=[0x004FC819]

loc_4FC80C: ; preds=loc_4FC803 succs=loc_4FC819
  0x004FC80C    8b 44 24 74                                      mov     eax, [esp+0A0h+var_2C]
  0x004FC810    50                                               push    eax
  0x004FC811    e8 9a f2 02 00                                   call    sub_52BAB0    ; code_refs=[0x0052BAB0]
  0x004FC816    83 c4 04                                         add     esp, 4

loc_4FC819: ; preds=loc_4FC803,loc_4FC80C succs=loc_4FC831,loc_4FC83E
  0x004FC819    89 bc 24 88 00 00 00                             mov     [esp+0A0h+var_18], edi
  0x004FC820    89 9c 24 84 00 00 00                             mov     [esp+0A0h+var_1C], ebx
  0x004FC827    88 5c 24 74                                      mov     byte ptr [esp+0A0h+var_2C], bl
  0x004FC82B    39 6c 24 6c                                      cmp     [esp+0A0h+var_34], ebp
  0x004FC82F    72 0d                                            jb      short loc_4FC83E    ; code_refs=[0x004FC83E]

loc_4FC831: ; preds=loc_4FC819 succs=loc_4FC83E
  0x004FC831    8b 4c 24 58                                      mov     ecx, [esp+0A0h+var_48]
  0x004FC835    51                                               push    ecx
  0x004FC836    e8 75 f2 02 00                                   call    sub_52BAB0    ; code_refs=[0x0052BAB0]
  0x004FC83B    83 c4 04                                         add     esp, 4

loc_4FC83E: ; preds=loc_4FC819,loc_4FC831 succs=
  0x004FC83E    b8 01 00 00 00                                   mov     eax, 1
  0x004FC843    8b 8c 24 94 00 00 00                             mov     ecx, [esp+0A0h+var_C]
  0x004FC84A    64 89 0d 00 00 00 00                             mov     large fs:0, ecx
  0x004FC851    59                                               pop     ecx
  0x004FC852    5f                                               pop     edi
  0x004FC853    5e                                               pop     esi
  0x004FC854    5d                                               pop     ebp
  0x004FC855    5b                                               pop     ebx
  0x004FC856    8b 4c 24 7c                                      mov     ecx, [esp+8Ch+var_10]
  0x004FC85A    33 cc                                            xor     ecx, esp
  0x004FC85C    e8 3f 1c 03 00                                   call    sub_52E4A0    ; code_refs=[0x0052E4A0]
  0x004FC861    81 c4 8c 00 00 00                                add     esp, 8Ch
  0x004FC867    c3                                               retn

loc_5337A0: ; preds= succs=loc_446000
  0x005337A0    8d 4d b8                                         lea     ecx, [ebp-48h]
  0x005337A3    e9 58 28 f1 ff                                   jmp     sub_446000    ; code_refs=[0x00446000]

loc_5337A8:
  0x005337A8    8b 85 7c ff ff ff                                mov     eax, [ebp-84h]
  0x005337AE    50                                               push    eax
  0x005337AF    e8 fc 82 ff ff                                   call    sub_52BAB0    ; code_refs=[0x0052BAB0]
  0x005337B4    59                                               pop     ecx
  0x005337B5    c3                                               retn

loc_5337B6: ; preds= succs=loc_446000
  0x005337B6    8d 4d 80                                         lea     ecx, [ebp-80h]
  0x005337B9    e9 42 28 f1 ff                                   jmp     sub_446000    ; code_refs=[0x00446000]

loc_5337BE: ; preds= succs=loc_52E5C6
  0x005337BE    8b 54 24 08                                      mov     edx, [esp+arg_4]
  0x005337C2    8d 82 70 ff ff ff                                lea     eax, [edx-90h]
  0x005337C8    8b 8a 6c ff ff ff                                mov     ecx, [edx-94h]
  0x005337CE    33 c8                                            xor     ecx, eax
  0x005337D0    e8 cb ac ff ff                                   call    sub_52E4A0    ; code_refs=[0x0052E4A0]
  0x005337D5    83 c0 10                                         add     eax, 10h
  0x005337D8    8b 4a fc                                         mov     ecx, [edx-4]
  0x005337DB    33 c8                                            xor     ecx, eax
  0x005337DD    e8 be ac ff ff                                   call    sub_52E4A0    ; code_refs=[0x0052E4A0]
  0x005337E2    b8 3c b0 55 00                                   mov     eax, offset stru_55B03C    ; data_refs=[0x0055B03C]
  0x005337E7    e9 da ad ff ff                                   jmp     __CxxFrameHandler3    ; code_refs=[0x0052E5C6]
; END_FUNC 0x004FC5C0 sub_4FC5C0


; ======================================================================================================================
; FUNC 0x004FC870 sub_4FC870 size=367 segment=.text
; STRINGS:
;   0x00564490 'N'
;   0x00546B0C 'control.cfg'
;   0x00546B00 'EN_CROSS'
;   0x00546AF0 'INTFS_SOUNDS'
;   0x0054680C '..\\ShareClientSeverCode\\Interface\\Interface.cpp'
;   0x00546AD8 'Effects\\loadscreen.ui'
;   0x005469A8 'Effects\\sprites.ui'
;   0x0055983C '"'
; ----------------------------------------------------------------------------------------------------------------------

loc_4FC870: ; preds= succs=loc_4FC89C,loc_4FC8AF
  0x004FC870    6a ff                                            push    0FFFFFFFFh
  0x004FC872    68 8b 20 53 00                                   push    offset SEH_4D0620    ; data_refs=[0x0053208B]
  0x004FC877    64 a1 00 00 00 00                                mov     eax, large fs:0
  0x004FC87D    50                                               push    eax
  0x004FC87E    51                                               push    ecx
  0x004FC87F    53                                               push    ebx
  0x004FC880    a1 90 44 56 00                                   mov     eax, dword_564490    ; data_refs=[0x00564490]
  0x004FC885    33 c4                                            xor     eax, esp
  0x004FC887    50                                               push    eax
  0x004FC888    8d 44 24 0c                                      lea     eax, [esp+18h+var_C]
  0x004FC88C    64 a3 00 00 00 00                                mov     large fs:0, eax
  0x004FC892    33 db                                            xor     ebx, ebx
  0x004FC894    39 1d 6c 97 ba 04                                cmp     dword_4BA976C, ebx    ; data_refs=[0x04BA976C]
  0x004FC89A    74 13                                            jz      short loc_4FC8AF    ; code_refs=[0x004FC8AF]

loc_4FC89C: ; preds=loc_4FC870 succs=
  0x004FC89C    33 c0                                            xor     eax, eax
  0x004FC89E    8b 4c 24 0c                                      mov     ecx, [esp+18h+var_C]
  0x004FC8A2    64 89 0d 00 00 00 00                             mov     large fs:0, ecx
  0x004FC8A9    59                                               pop     ecx
  0x004FC8AA    5b                                               pop     ebx
  0x004FC8AB    83 c4 10                                         add     esp, 10h
  0x004FC8AE    c3                                               retn

loc_4FC8AF: ; preds=loc_4FC870 succs=loc_4FC8EE,loc_4FC93F
  0x004FC8AF    e8 dc 78 fe ff                                   call    sub_4E4190    ; code_refs=[0x004E4190]
  0x004FC8B4    b9 0c 6b 54 00                                   mov     ecx, offset aControlCfg; "control.cfg"    ; data_refs=[0x00546B0C]
  0x004FC8B9    c7 05 a8 10 56 00 01 00 00 00                    mov     dword_5610A8, 1    ; data_refs=[0x005610A8]
  0x004FC8C3    e8 08 b8 f8 ff                                   call    sub_4880D0    ; code_refs=[0x004880D0]
  0x004FC8C8    ba a8 10 56 00                                   mov     edx, offset dword_5610A8    ; data_refs=[0x005610A8]
  0x004FC8CD    b9 00 6b 54 00                                   mov     ecx, offset aEnCross; "EN_CROSS"    ; data_refs=[0x00546B00]
  0x004FC8D2    e8 89 b9 f8 ff                                   call    sub_488260    ; code_refs=[0x00488260]
  0x004FC8D7    ba ac 10 56 00                                   mov     edx, offset dword_5610AC    ; data_refs=[0x005610AC]
  0x004FC8DC    b9 f0 6a 54 00                                   mov     ecx, offset aIntfsSounds; "INTFS_SOUNDS"    ; data_refs=[0x00546AF0]
  0x004FC8E1    e8 7a b9 f8 ff                                   call    sub_488260    ; code_refs=[0x00488260]
  0x004FC8E6    39 1d 64 97 ba 04                                cmp     dword_4BA9764, ebx    ; data_refs=[0x04BA9764]
  0x004FC8EC    75 51                                            jnz     short loc_4FC93F    ; code_refs=[0x004FC93F]

loc_4FC8EE: ; preds=loc_4FC8AF succs=loc_4FC916,loc_4FC91F
  0x004FC8EE    ba 64 03 00 00                                   mov     edx, 364h
  0x004FC8F3    b9 0c 68 54 00                                   mov     ecx, offset aShareclientsev_36; "..\\ShareClientSeverCode\\Interface\\In"...    ; data_refs=[0x0054680C]
  0x004FC8F8    e8 53 e5 02 00                                   call    sub_52AE50    ; code_refs=[0x0052AE50]
  0x004FC8FD    68 14 03 00 00                                   push    314h; Size
  0x004FC902    e8 29 f2 02 00                                   call    sub_52BB30    ; code_refs=[0x0052BB30]
  0x004FC907    83 c4 04                                         add     esp, 4
  0x004FC90A    89 44 24 08                                      mov     [esp+18h+var_10], eax
  0x004FC90E    89 5c 24 14                                      mov     [esp+18h+var_4], ebx
  0x004FC912    3b c3                                            cmp     eax, ebx
  0x004FC914    74 09                                            jz      short loc_4FC91F    ; code_refs=[0x004FC91F]

loc_4FC916: ; preds=loc_4FC8EE succs=loc_4FC921
  0x004FC916    8b c8                                            mov     ecx, eax
  0x004FC918    e8 73 45 fe ff                                   call    sub_4E0E90    ; code_refs=[0x004E0E90]
  0x004FC91D    eb 02                                            jmp     short loc_4FC921    ; code_refs=[0x004FC921]

loc_4FC91F: ; preds=loc_4FC8EE succs=loc_4FC921
  0x004FC91F    33 c0                                            xor     eax, eax

loc_4FC921: ; preds=loc_4FC916,loc_4FC91F succs=loc_4FC93F
  0x004FC921    8b c8                                            mov     ecx, eax
  0x004FC923    c7 44 24 14 ff ff ff ff                          mov     [esp+18h+var_4], 0FFFFFFFFh
  0x004FC92B    a3 64 97 ba 04                                   mov     dword_4BA9764, eax    ; data_refs=[0x04BA9764]
  0x004FC930    e8 4b 46 fe ff                                   call    sub_4E0F80    ; code_refs=[0x004E0F80]
  0x004FC935    c7 05 a0 10 56 00 ff 00 00 00                    mov     dword_5610A0, 0FFh    ; data_refs=[0x005610A0]

loc_4FC93F: ; preds=loc_4FC8AF,loc_4FC921 succs=loc_4FC94E,loc_4FC982
  0x004FC93F    e8 3c f4 ff ff                                   call    sub_4FBD80    ; code_refs=[0x004FBD80]
  0x004FC944    8b 0d 64 97 ba 04                                mov     ecx, dword_4BA9764    ; data_refs=[0x04BA9764]
  0x004FC94A    3b cb                                            cmp     ecx, ebx
  0x004FC94C    74 34                                            jz      short loc_4FC982    ; code_refs=[0x004FC982]

loc_4FC94E: ; preds=loc_4FC93F succs=loc_4FC972,loc_4FC982
  0x004FC94E    53                                               push    ebx; int
  0x004FC94F    53                                               push    ebx; int
  0x004FC950    53                                               push    ebx; String2
  0x004FC951    53                                               push    ebx; int
  0x004FC952    c6 41 08 ff                                      mov     byte ptr [ecx+8], 0FFh
  0x004FC956    88 59 01                                         mov     [ecx+1], bl
  0x004FC959    e8 62 47 fe ff                                   call    sub_4E10C0    ; code_refs=[0x004E10C0]
  0x004FC95E    8b 0d 64 97 ba 04                                mov     ecx, dword_4BA9764    ; data_refs=[0x04BA9764]
  0x004FC964    c7 05 a0 10 56 00 ff 00 00 00                    mov     dword_5610A0, 0FFh    ; data_refs=[0x005610A0]
  0x004FC96E    3b cb                                            cmp     ecx, ebx
  0x004FC970    74 10                                            jz      short loc_4FC982    ; code_refs=[0x004FC982]

loc_4FC972: ; preds=loc_4FC94E succs=loc_4FC982
  0x004FC972    53                                               push    ebx; int
  0x004FC973    53                                               push    ebx; int
  0x004FC974    53                                               push    ebx; String2
  0x004FC975    6a 01                                            push    1; int
  0x004FC977    e8 44 47 fe ff                                   call    sub_4E10C0    ; code_refs=[0x004E10C0]
  0x004FC97C    88 1d e0 96 ba 04                                mov     byte_4BA9510+1D0h, bl    ; data_refs=[0x04BA96E0]

loc_4FC982: ; preds=loc_4FC93F,loc_4FC94E,loc_4FC972 succs=
  0x004FC982    e8 39 fc ff ff                                   call    sub_4FC5C0    ; code_refs=[0x004FC5C0]
  0x004FC987    68 d8 6a 54 00                                   push    offset aEffectsLoadscr; "Effects\\loadscreen.ui"    ; data_refs=[0x00546AD8]
  0x004FC98C    e8 ef d2 ff ff                                   call    sub_4F9C80    ; code_refs=[0x004F9C80]
  0x004FC991    68 a8 69 54 00                                   push    offset aEffectsSprites; "Effects\\sprites.ui"    ; data_refs=[0x005469A8]
  0x004FC996    e8 c5 b9 ff ff                                   call    sub_4F8360    ; code_refs=[0x004F8360]
  0x004FC99B    b9 0f 00 00 00                                   mov     ecx, 0Fh
  0x004FC9A0    e8 7b 4a fa ff                                   call    sub_4A1420    ; code_refs=[0x004A1420]
  0x004FC9A5    e8 86 d0 ff ff                                   call    sub_4F9A30    ; code_refs=[0x004F9A30]
  0x004FC9AA    b9 1e 00 00 00                                   mov     ecx, 1Eh
  0x004FC9AF    e8 6c 4a fa ff                                   call    sub_4A1420    ; code_refs=[0x004A1420]
  0x004FC9B4    e8 a7 d4 ff ff                                   call    sub_4F9E60    ; code_refs=[0x004F9E60]
  0x004FC9B9    88 1d 68 97 ba 04                                mov     byte_4BA9768, bl    ; data_refs=[0x04BA9768]
  0x004FC9BF    c7 05 6c 97 ba 04 01 00 00 00                    mov     dword_4BA976C, 1    ; data_refs=[0x04BA976C]
  0x004FC9C9    b8 01 00 00 00                                   mov     eax, 1
  0x004FC9CE    8b 4c 24 0c                                      mov     ecx, [esp+18h+var_C]
  0x004FC9D2    64 89 0d 00 00 00 00                             mov     large fs:0, ecx
  0x004FC9D9    59                                               pop     ecx
  0x004FC9DA    5b                                               pop     ebx
  0x004FC9DB    83 c4 10                                         add     esp, 10h
  0x004FC9DE    c3                                               retn

loc_532080:
  0x00532080    8b 45 f0                                         mov     eax, [ebp-10h]
  0x00532083    50                                               push    eax
  0x00532084    e8 27 9a ff ff                                   call    sub_52BAB0    ; code_refs=[0x0052BAB0]
  0x00532089    59                                               pop     ecx
  0x0053208A    c3                                               retn

loc_53208B: ; preds= succs=loc_52E5C6
  0x0053208B    8b 54 24 08                                      mov     edx, [esp+arg_4]
  0x0053208F    8d 42 f8                                         lea     eax, [edx-8]
  0x00532092    8b 4a f4                                         mov     ecx, [edx-0Ch]
  0x00532095    33 c8                                            xor     ecx, eax
  0x00532097    e8 04 c4 ff ff                                   call    sub_52E4A0    ; code_refs=[0x0052E4A0]
  0x0053209C    b8 3c 98 55 00                                   mov     eax, offset stru_55983C    ; data_refs=[0x0055983C]
  0x005320A1    e9 20 c5 ff ff                                   jmp     __CxxFrameHandler3    ; code_refs=[0x0052E5C6]
; END_FUNC 0x004FC870 sub_4FC870


; ======================================================================================================================
; FUNC 0x00516500 sub_516500 size=855 segment=.text
; STRINGS:
;   0x00564490 'N'
;   0x005490C4 'textures\\cursors'
;   0x00549260 '%s\\%s.bmp'
;   0x00549228 'CreateCursor(): failed to load cursor image from file'
;   0x005491FC 'CreateCursor(): invalid cursor image format'
;   0x005490D8 'GDI::CWindowDC::CWindowDC(): failed to retrieve DC'
;   0x0054910C 'GDI::CMemoryDC::CMemoryDC(): failed to create DC'
;   0x00549140 'GDI::CBitmap::CBitmap(): failed to create bitmap'
;   0x00549178 'GDI::CObjectSelector::CObjectSelector(): failed to select object'
;   0x005491E4 'CursorImageManager.cpp'
;   0x005491BC 'CreateCursor(): failed to create cursor'
;   0x0055BBDC '"'
; ----------------------------------------------------------------------------------------------------------------------

loc_516500: ; preds= succs=loc_516584,loc_51658E
  0x00516500    6a ff                                            push    0FFFFFFFFh
  0x00516502    68 a2 43 53 00                                   push    offset SEH_4D6500    ; data_refs=[0x005343A2]
  0x00516507    64 a1 00 00 00 00                                mov     eax, large fs:0
  0x0051650D    50                                               push    eax
  0x0051650E    81 ec 54 04 00 00                                sub     esp, 454h
  0x00516514    a1 90 44 56 00                                   mov     eax, dword_564490    ; data_refs=[0x00564490]
  0x00516519    33 c4                                            xor     eax, esp
  0x0051651B    89 84 24 50 04 00 00                             mov     [esp+460h+var_10], eax
  0x00516522    53                                               push    ebx
  0x00516523    55                                               push    ebp
  0x00516524    56                                               push    esi
  0x00516525    57                                               push    edi; int
  0x00516526    a1 90 44 56 00                                   mov     eax, dword_564490    ; data_refs=[0x00564490]
  0x0051652B    33 c4                                            xor     eax, esp
  0x0051652D    50                                               push    eax; int
  0x0051652E    8d 84 24 68 04 00 00                             lea     eax, [esp+474h+var_C]
  0x00516535    64 a3 00 00 00 00                                mov     large fs:0, eax
  0x0051653B    8b 84 24 78 04 00 00                             mov     eax, [esp+474h+arg_0]
  0x00516542    89 44 24 34                                      mov     [esp+474h+var_440], eax
  0x00516546    8b 84 24 7c 04 00 00                             mov     eax, [esp+474h+arg_4]
  0x0051654D    50                                               push    eax
  0x0051654E    68 c4 90 54 00                                   push    offset aTexturesCursor; "textures\\cursors"    ; data_refs=[0x005490C4]
  0x00516553    68 60 92 54 00                                   push    offset aSSBmp; "%s\\%s.bmp"    ; data_refs=[0x00549260]
  0x00516558    8d 4c 24 70                                      lea     ecx, [esp+480h+Buffer]
  0x0051655C    68 00 04 00 00                                   push    400h; BufferCount
  0x00516561    51                                               push    ecx; Buffer
  0x00516562    ff 15 18 c4 53 00                                call    ds:_snprintf    ; code_refs=[0x0053C418] data_refs=[0x0053C418]
  0x00516568    83 c4 14                                         add     esp, 14h
  0x0051656B    8d 4c 24 64                                      lea     ecx, [esp+474h+Buffer]; lpFileName
  0x0051656F    c6 84 24 63 04 00 00 00                          mov     [esp+474h+var_11], 0
  0x00516577    e8 f4 c2 f4 ff                                   call    sub_462870    ; code_refs=[0x00462870]
  0x0051657C    8b f8                                            mov     edi, eax
  0x0051657E    33 db                                            xor     ebx, ebx
  0x00516580    3b fb                                            cmp     edi, ebx
  0x00516582    75 0a                                            jnz     short loc_51658E    ; code_refs=[0x0051658E]

loc_516584: ; preds=loc_516500 succs=
  0x00516584    b9 28 92 54 00                                   mov     ecx, offset aCreatecursorFa; "CreateCursor(): failed to load cursor i"...    ; data_refs=[0x00549228]
  0x00516589    e8 a2 32 f8 ff                                   call    sub_499830    ; code_refs=[0x00499830]

loc_51658E: ; preds=loc_516500 succs=loc_516594,loc_5165A0
  0x0051658E    83 7f 04 20                                      cmp     dword ptr [edi+4], 20h ; ' '
  0x00516592    75 0c                                            jnz     short loc_5165A0    ; code_refs=[0x005165A0]

loc_516594: ; preds=loc_51658E succs=loc_51659A,loc_5165A0
  0x00516594    83 7f 08 20                                      cmp     dword ptr [edi+8], 20h ; ' '
  0x00516598    75 06                                            jnz     short loc_5165A0    ; code_refs=[0x005165A0]

loc_51659A: ; preds=loc_516594 succs=loc_5165A0,loc_5165AA
  0x0051659A    83 7f 0c 20                                      cmp     dword ptr [edi+0Ch], 20h ; ' '
  0x0051659E    74 0a                                            jz      short loc_5165AA    ; code_refs=[0x005165AA]

loc_5165A0: ; preds=loc_51658E,loc_516594,loc_51659A succs=
  0x005165A0    b9 fc 91 54 00                                   mov     ecx, offset aCreatecursorIn; "CreateCursor(): invalid cursor image fo"...    ; data_refs=[0x005491FC]
  0x005165A5    e8 86 32 f8 ff                                   call    sub_499830    ; code_refs=[0x00499830]

loc_5165AA: ; preds=loc_51659A succs=loc_5165BF,loc_5165C9
  0x005165AA    53                                               push    ebx; hWnd
  0x005165AB    89 5c 24 30                                      mov     [esp+478h+var_448], ebx
  0x005165AF    ff 15 44 c5 53 00                                call    ds:GetDC    ; code_refs=[0x0053C544] data_refs=[0x0053C544]
  0x005165B5    8b f0                                            mov     esi, eax
  0x005165B7    89 74 24 30                                      mov     [esp+474h+hdc], esi
  0x005165BB    3b f3                                            cmp     esi, ebx
  0x005165BD    75 0a                                            jnz     short loc_5165C9    ; code_refs=[0x005165C9]

loc_5165BF: ; preds=loc_5165AA succs=
  0x005165BF    b9 d8 90 54 00                                   mov     ecx, offset aGdiCwindowdcCw; "GDI::CWindowDC::CWindowDC(): failed to "...    ; data_refs=[0x005490D8]
  0x005165C4    e8 67 32 f8 ff                                   call    sub_499830    ; code_refs=[0x00499830]

loc_5165C9: ; preds=loc_5165AA succs=loc_5165E1,loc_5165EB
  0x005165C9    56                                               push    esi; hdc
  0x005165CA    89 9c 24 74 04 00 00                             mov     [esp+478h+var_4], ebx
  0x005165D1    ff 15 24 c0 53 00                                call    ds:CreateCompatibleDC    ; code_refs=[0x0053C024] data_refs=[0x0053C024]
  0x005165D7    8b e8                                            mov     ebp, eax
  0x005165D9    89 6c 24 60                                      mov     [esp+474h+var_414], ebp
  0x005165DD    3b eb                                            cmp     ebp, ebx
  0x005165DF    75 0a                                            jnz     short loc_5165EB    ; code_refs=[0x005165EB]

loc_5165E1: ; preds=loc_5165C9 succs=
  0x005165E1    b9 0c 91 54 00                                   mov     ecx, offset aGdiCmemorydcCm; "GDI::CMemoryDC::CMemoryDC(): failed to "...    ; data_refs=[0x0054910C]
  0x005165E6    e8 45 32 f8 ff                                   call    sub_499830    ; code_refs=[0x00499830]

loc_5165EB: ; preds=loc_5165C9 succs=loc_51661C,loc_516626
  0x005165EB    8b 77 08                                         mov     esi, [edi+8]
  0x005165EE    8b 47 04                                         mov     eax, [edi+4]
  0x005165F1    53                                               push    ebx; lpBits
  0x005165F2    6a 01                                            push    1; nBitCount
  0x005165F4    6a 01                                            push    1; nPlanes
  0x005165F6    56                                               push    esi; nHeight
  0x005165F7    50                                               push    eax; nWidth
  0x005165F8    c6 84 24 84 04 00 00 01                          mov     byte ptr [esp+488h+var_4], 1
  0x00516600    89 74 24 28                                      mov     [esp+488h+var_460], esi
  0x00516604    89 44 24 38                                      mov     [esp+488h+var_450], eax
  0x00516608    89 74 24 3c                                      mov     [esp+488h+var_44C], esi
  0x0051660C    ff 15 1c c0 53 00                                call    ds:CreateBitmap    ; code_refs=[0x0053C01C] data_refs=[0x0053C01C]
  0x00516612    8b d8                                            mov     ebx, eax
  0x00516614    89 5c 24 20                                      mov     [esp+474h+ho], ebx
  0x00516618    85 db                                            test    ebx, ebx
  0x0051661A    75 0a                                            jnz     short loc_516626    ; code_refs=[0x00516626]

loc_51661C: ; preds=loc_5165EB succs=
  0x0051661C    b9 40 91 54 00                                   mov     ecx, offset aGdiCbitmapCbit; "GDI::CBitmap::CBitmap(): failed to crea"...    ; data_refs=[0x00549140]
  0x00516621    e8 0a 32 f8 ff                                   call    sub_499830    ; code_refs=[0x00499830]

loc_516626: ; preds=loc_5165EB succs=loc_516655,loc_51665F
  0x00516626    53                                               push    ebx; h
  0x00516627    55                                               push    ebp; hdc
  0x00516628    c6 84 24 78 04 00 00 02                          mov     byte ptr [esp+47Ch+var_4], 2
  0x00516630    89 6c 24 20                                      mov     [esp+47Ch+var_45C], ebp
  0x00516634    ff 15 30 c0 53 00                                call    ds:SelectObject    ; code_refs=[0x0053C030] data_refs=[0x0053C030]
  0x0051663A    53                                               push    ebx; h
  0x0051663B    89 44 24 20                                      mov     [esp+478h+h], eax
  0x0051663F    ff 15 18 c0 53 00                                call    ds:GetObjectType    ; code_refs=[0x0053C018] data_refs=[0x0053C018]
  0x00516645    83 e8 08                                         sub     eax, 8
  0x00516648    f7 d8                                            neg     eax
  0x0051664A    1b c0                                            sbb     eax, eax
  0x0051664C    f7 d8                                            neg     eax
  0x0051664E    48                                               dec     eax
  0x0051664F    39 44 24 1c                                      cmp     [esp+474h+h], eax
  0x00516653    75 0a                                            jnz     short loc_51665F    ; code_refs=[0x0051665F]

loc_516655: ; preds=loc_516626 succs=
  0x00516655    b9 78 91 54 00                                   mov     ecx, offset aGdiCobjectsele; "GDI::CObjectSelector::CObjectSelector()"...    ; data_refs=[0x00549178]
  0x0051665A    e8 d1 31 f8 ff                                   call    sub_499830    ; code_refs=[0x00499830]

loc_51665F: ; preds=loc_516626 succs=loc_51666D,loc_5166A9
  0x0051665F    33 db                                            xor     ebx, ebx
  0x00516661    c6 84 24 70 04 00 00 03                          mov     byte ptr [esp+474h+var_4], 3
  0x00516669    85 f6                                            test    esi, esi
  0x0051666B    74 3c                                            jz      short loc_5166A9    ; code_refs=[0x005166A9]

loc_51666D: ; preds=loc_51665F,loc_5166A2 succs=loc_516675,loc_5166A2
  0x0051666D    33 f6                                            xor     esi, esi
  0x0051666F    39 74 24 24                                      cmp     [esp+474h+var_450], esi
  0x00516673    76 2d                                            jbe     short loc_5166A2    ; code_refs=[0x005166A2]

loc_516675: ; preds=loc_51666D,loc_516675 succs=loc_5166A2,loc_516675
  0x00516675    53                                               push    ebx
  0x00516676    56                                               push    esi
  0x00516677    8b cf                                            mov     ecx, edi
  0x00516679    e8 c2 c1 f4 ff                                   call    sub_462840    ; code_refs=[0x00462840]
  0x0051667E    25 00 00 00 ff                                   and     eax, 0FF000000h
  0x00516683    f7 d8                                            neg     eax
  0x00516685    1b c0                                            sbb     eax, eax
  0x00516687    25 01 00 00 ff                                   and     eax, 0FF000001h
  0x0051668C    05 ff ff ff 00                                   add     eax, offset unk_FFFFFF    ; data_refs=[0x00FFFFFF]
  0x00516691    50                                               push    eax; color
  0x00516692    53                                               push    ebx; y
  0x00516693    56                                               push    esi; x
  0x00516694    55                                               push    ebp; hdc
  0x00516695    ff 15 38 c0 53 00                                call    ds:SetPixel    ; code_refs=[0x0053C038] data_refs=[0x0053C038]
  0x0051669B    46                                               inc     esi
  0x0051669C    3b 74 24 24                                      cmp     esi, [esp+474h+var_450]
  0x005166A0    72 d3                                            jb      short loc_516675    ; code_refs=[0x00516675]

loc_5166A2: ; preds=loc_51666D,loc_516675 succs=loc_51666D,loc_5166A9
  0x005166A2    43                                               inc     ebx
  0x005166A3    3b 5c 24 14                                      cmp     ebx, [esp+474h+var_460]
  0x005166A7    72 c4                                            jb      short loc_51666D    ; code_refs=[0x0051666D]

loc_5166A9: ; preds=loc_51665F,loc_5166A2 succs=loc_5166E6,loc_5166F0
  0x005166A9    8b 54 24 1c                                      mov     edx, [esp+474h+h]
  0x005166AD    52                                               push    edx; h
  0x005166AE    55                                               push    ebp; hdc
  0x005166AF    c6 84 24 78 04 00 00 02                          mov     byte ptr [esp+47Ch+var_4], 2
  0x005166B7    ff 15 30 c0 53 00                                call    ds:SelectObject    ; code_refs=[0x0053C030] data_refs=[0x0053C030]
  0x005166BD    8b 47 08                                         mov     eax, [edi+8]
  0x005166C0    8b 4f 04                                         mov     ecx, [edi+4]
  0x005166C3    50                                               push    eax; cy
  0x005166C4    89 44 24 1c                                      mov     [esp+478h+var_45C], eax
  0x005166C8    89 44 24 44                                      mov     [esp+478h+var_434], eax
  0x005166CC    8b 44 24 34                                      mov     eax, [esp+478h+hdc]
  0x005166D0    51                                               push    ecx; cx
  0x005166D1    50                                               push    eax; hdc
  0x005166D2    89 4c 24 48                                      mov     [esp+480h+var_438], ecx
  0x005166D6    ff 15 28 c0 53 00                                call    ds:CreateCompatibleBitmap    ; code_refs=[0x0053C028] data_refs=[0x0053C028]
  0x005166DC    8b f0                                            mov     esi, eax
  0x005166DE    89 74 24 38                                      mov     [esp+474h+var_43C], esi
  0x005166E2    85 f6                                            test    esi, esi
  0x005166E4    75 0a                                            jnz     short loc_5166F0    ; code_refs=[0x005166F0]

loc_5166E6: ; preds=loc_5166A9 succs=
  0x005166E6    b9 40 91 54 00                                   mov     ecx, offset aGdiCbitmapCbit; "GDI::CBitmap::CBitmap(): failed to crea"...    ; data_refs=[0x00549140]
  0x005166EB    e8 40 31 f8 ff                                   call    sub_499830    ; code_refs=[0x00499830]

loc_5166F0: ; preds=loc_5166A9 succs=loc_51671F,loc_516729
  0x005166F0    56                                               push    esi; h
  0x005166F1    55                                               push    ebp; hdc
  0x005166F2    c6 84 24 78 04 00 00 04                          mov     byte ptr [esp+47Ch+var_4], 4
  0x005166FA    89 6c 24 60                                      mov     [esp+47Ch+var_41C], ebp
  0x005166FE    ff 15 30 c0 53 00                                call    ds:SelectObject    ; code_refs=[0x0053C030] data_refs=[0x0053C030]
  0x00516704    8b d8                                            mov     ebx, eax
  0x00516706    56                                               push    esi; h
  0x00516707    89 5c 24 60                                      mov     [esp+478h+var_418], ebx
  0x0051670B    ff 15 18 c0 53 00                                call    ds:GetObjectType    ; code_refs=[0x0053C018] data_refs=[0x0053C018]
  0x00516711    83 e8 08                                         sub     eax, 8
  0x00516714    f7 d8                                            neg     eax
  0x00516716    1b c0                                            sbb     eax, eax
  0x00516718    f7 d8                                            neg     eax
  0x0051671A    48                                               dec     eax
  0x0051671B    3b d8                                            cmp     ebx, eax
  0x0051671D    75 0a                                            jnz     short loc_516729    ; code_refs=[0x00516729]

loc_51671F: ; preds=loc_5166F0 succs=
  0x0051671F    b9 78 91 54 00                                   mov     ecx, offset aGdiCobjectsele; "GDI::CObjectSelector::CObjectSelector()"...    ; data_refs=[0x00549178]
  0x00516724    e8 07 31 f8 ff                                   call    sub_499830    ; code_refs=[0x00499830]

loc_516729: ; preds=loc_5166F0 succs=loc_516739,loc_51676B
  0x00516729    33 db                                            xor     ebx, ebx
  0x0051672B    c6 84 24 70 04 00 00 05                          mov     byte ptr [esp+474h+var_4], 5
  0x00516733    39 5c 24 14                                      cmp     [esp+474h+var_460], ebx
  0x00516737    76 32                                            jbe     short loc_51676B    ; code_refs=[0x0051676B]

loc_516739: ; preds=loc_516729,loc_516760 succs=loc_516741,loc_516760
  0x00516739    33 f6                                            xor     esi, esi
  0x0051673B    39 74 24 24                                      cmp     [esp+474h+var_450], esi
  0x0051673F    76 1f                                            jbe     short loc_516760    ; code_refs=[0x00516760]

loc_516741: ; preds=loc_516739,loc_516741 succs=loc_516760,loc_516741
  0x00516741    53                                               push    ebx
  0x00516742    56                                               push    esi
  0x00516743    8b cf                                            mov     ecx, edi
  0x00516745    e8 f6 c0 f4 ff                                   call    sub_462840    ; code_refs=[0x00462840]
  0x0051674A    25 ff ff ff 00                                   and     eax, offset unk_FFFFFF    ; data_refs=[0x00FFFFFF]
  0x0051674F    50                                               push    eax; color
  0x00516750    53                                               push    ebx; y
  0x00516751    56                                               push    esi; x
  0x00516752    55                                               push    ebp; hdc
  0x00516753    ff 15 38 c0 53 00                                call    ds:SetPixel    ; code_refs=[0x0053C038] data_refs=[0x0053C038]
  0x00516759    46                                               inc     esi
  0x0051675A    3b 74 24 24                                      cmp     esi, [esp+474h+var_450]
  0x0051675E    72 e1                                            jb      short loc_516741    ; code_refs=[0x00516741]

loc_516760: ; preds=loc_516739,loc_516741 succs=loc_516739,loc_516767
  0x00516760    43                                               inc     ebx
  0x00516761    3b 5c 24 14                                      cmp     ebx, [esp+474h+var_460]
  0x00516765    72 d2                                            jb      short loc_516739    ; code_refs=[0x00516739]

loc_516767: ; preds=loc_516760 succs=loc_51676B
  0x00516767    8b 74 24 38                                      mov     esi, [esp+474h+var_43C]

loc_51676B: ; preds=loc_516729,loc_516767 succs=loc_5167AE,loc_5167C4
  0x0051676B    8b 4c 24 5c                                      mov     ecx, [esp+474h+var_418]
  0x0051676F    51                                               push    ecx; h
  0x00516770    55                                               push    ebp; hdc
  0x00516771    c6 84 24 78 04 00 00 04                          mov     byte ptr [esp+47Ch+var_4], 4
  0x00516779    ff 15 30 c0 53 00                                call    ds:SelectObject    ; code_refs=[0x0053C030] data_refs=[0x0053C030]
  0x0051677F    ba 3c 00 00 00                                   mov     edx, 3Ch ; '<'
  0x00516784    b9 e4 91 54 00                                   mov     ecx, offset aCursorimageman; "CursorImageManager.cpp"    ; data_refs=[0x005491E4]
  0x00516789    e8 c2 46 01 00                                   call    sub_52AE50    ; code_refs=[0x0052AE50]
  0x0051678E    8b cf                                            mov     ecx, edi
  0x00516790    e8 8b c0 f4 ff                                   call    sub_462820    ; code_refs=[0x00462820]
  0x00516795    57                                               push    edi
  0x00516796    e8 15 53 01 00                                   call    sub_52BAB0    ; code_refs=[0x0052BAB0]
  0x0051679B    33 ff                                            xor     edi, edi
  0x0051679D    83 c4 04                                         add     esp, 4
  0x005167A0    80 bc 24 80 04 00 00 00                          cmp     [esp+474h+arg_8], 0
  0x005167A8    89 7c 24 44                                      mov     [esp+474h+piconinfo.fIcon], edi    ; data_refs=[0x000445C2]
  0x005167AC    74 16                                            jz      short loc_5167C4    ; code_refs=[0x005167C4]

loc_5167AE: ; preds=loc_51676B succs=loc_5167CC
  0x005167AE    8b 54 24 3c                                      mov     edx, [esp+474h+var_438]
  0x005167B2    8b 44 24 18                                      mov     eax, [esp+474h+var_45C]
  0x005167B6    d1 ea                                            shr     edx, 1
  0x005167B8    d1 e8                                            shr     eax, 1
  0x005167BA    89 54 24 48                                      mov     [esp+474h+piconinfo.xHotspot], edx    ; data_refs=[0x000445C3]
  0x005167BE    89 44 24 4c                                      mov     [esp+474h+piconinfo.yHotspot], eax    ; data_refs=[0x000445C4]
  0x005167C2    eb 08                                            jmp     short loc_5167CC    ; code_refs=[0x005167CC]

loc_5167C4: ; preds=loc_51676B succs=loc_5167CC
  0x005167C4    89 7c 24 48                                      mov     [esp+474h+piconinfo.xHotspot], edi    ; data_refs=[0x000445C3]
  0x005167C8    89 7c 24 4c                                      mov     [esp+474h+piconinfo.yHotspot], edi    ; data_refs=[0x000445C4]

loc_5167CC: ; preds=loc_5167AE,loc_5167C4 succs=loc_5167E9,loc_5167F3
  0x005167CC    8b 4c 24 20                                      mov     ecx, [esp+474h+ho]
  0x005167D0    8d 54 24 44                                      lea     edx, [esp+474h+piconinfo]
  0x005167D4    52                                               push    edx; piconinfo
  0x005167D5    89 4c 24 54                                      mov     [esp+478h+piconinfo.hbmMask], ecx    ; data_refs=[0x000445C5]
  0x005167D9    89 74 24 58                                      mov     [esp+478h+piconinfo.hbmColor], esi    ; data_refs=[0x000445C6]
  0x005167DD    ff 15 88 c5 53 00                                call    ds:CreateIconIndirect    ; code_refs=[0x0053C588] data_refs=[0x0053C588]
  0x005167E3    8b d8                                            mov     ebx, eax
  0x005167E5    3b df                                            cmp     ebx, edi
  0x005167E7    75 0a                                            jnz     short loc_5167F3    ; code_refs=[0x005167F3]

loc_5167E9: ; preds=loc_5167CC succs=
  0x005167E9    b9 bc 91 54 00                                   mov     ecx, offset aCreatecursorFa_0; "CreateCursor(): failed to create cursor"    ; data_refs=[0x005491BC]
  0x005167EE    e8 3d 30 f8 ff                                   call    sub_499830    ; code_refs=[0x00499830]

loc_5167F3: ; preds=loc_5167CC succs=
  0x005167F3    8b 7c 24 34                                      mov     edi, [esp+474h+var_440]
  0x005167F7    8b 44 24 3c                                      mov     eax, [esp+474h+var_438]
  0x005167FB    8b 4c 24 18                                      mov     ecx, [esp+474h+var_45C]
  0x005167FF    56                                               push    esi; ho
  0x00516800    8b 35 3c c0 53 00                                mov     esi, ds:DeleteObject    ; data_refs=[0x0053C03C]
  0x00516806    89 1f                                            mov     [edi], ebx
  0x00516808    89 47 04                                         mov     [edi+4], eax
  0x0051680B    89 4f 08                                         mov     [edi+8], ecx
  0x0051680E    ff d6                                            call    esi ; DeleteObject    ; code_refs=[0x0053C03C]
  0x00516810    8b 54 24 20                                      mov     edx, [esp+474h+ho]
  0x00516814    52                                               push    edx; ho
  0x00516815    ff d6                                            call    esi ; DeleteObject    ; code_refs=[0x0053C03C]
  0x00516817    55                                               push    ebp; hdc
  0x00516818    ff 15 34 c0 53 00                                call    ds:DeleteDC    ; code_refs=[0x0053C034] data_refs=[0x0053C034]
  0x0051681E    8b 44 24 30                                      mov     eax, [esp+474h+hdc]
  0x00516822    50                                               push    eax; hDC
  0x00516823    6a 00                                            push    0; hWnd
  0x00516825    ff 15 40 c5 53 00                                call    ds:ReleaseDC    ; code_refs=[0x0053C540] data_refs=[0x0053C540]
  0x0051682B    8b c7                                            mov     eax, edi
  0x0051682D    8b 8c 24 68 04 00 00                             mov     ecx, [esp+474h+var_C]
  0x00516834    64 89 0d 00 00 00 00                             mov     large fs:0, ecx
  0x0051683B    59                                               pop     ecx
  0x0051683C    5f                                               pop     edi
  0x0051683D    5e                                               pop     esi
  0x0051683E    5d                                               pop     ebp
  0x0051683F    5b                                               pop     ebx
  0x00516840    8b 8c 24 50 04 00 00                             mov     ecx, [esp+460h+var_10]
  0x00516847    33 cc                                            xor     ecx, esp
  0x00516849    e8 52 7c 01 00                                   call    sub_52E4A0    ; code_refs=[0x0052E4A0]
  0x0051684E    81 c4 60 04 00 00                                add     esp, 460h
  0x00516854    c2 0c 00                                         retn    0Ch

loc_516420: ; preds=loc_534360 succs=
  0x00516420    8b 41 04                                         mov     eax, [ecx+4]
  0x00516423    8b 09                                            mov     ecx, [ecx]
  0x00516425    50                                               push    eax; hDC
  0x00516426    51                                               push    ecx; hWnd
  0x00516427    ff 15 40 c5 53 00                                call    ds:ReleaseDC    ; code_refs=[0x0053C540] data_refs=[0x0053C540]
  0x0051642D    c3                                               retn

loc_516430: ; preds=loc_53436B succs=
  0x00516430    8b 01                                            mov     eax, [ecx]
  0x00516432    50                                               push    eax; hdc
  0x00516433    ff 15 34 c0 53 00                                call    ds:DeleteDC    ; code_refs=[0x0053C034] data_refs=[0x0053C034]
  0x00516439    c3                                               retn

loc_516440: ; preds=loc_534376,loc_53438C succs=
  0x00516440    8b 01                                            mov     eax, [ecx]
  0x00516442    50                                               push    eax; ho
  0x00516443    ff 15 3c c0 53 00                                call    ds:DeleteObject    ; code_refs=[0x0053C03C] data_refs=[0x0053C03C]
  0x00516449    c3                                               retn

loc_516450: ; preds=loc_534381,loc_534397 succs=
  0x00516450    8b 41 04                                         mov     eax, [ecx+4]
  0x00516453    8b 09                                            mov     ecx, [ecx]
  0x00516455    50                                               push    eax; h
  0x00516456    51                                               push    ecx; hdc
  0x00516457    ff 15 30 c0 53 00                                call    ds:SelectObject    ; code_refs=[0x0053C030] data_refs=[0x0053C030]
  0x0051645D    c3                                               retn

loc_534360: ; preds= succs=loc_516420
  0x00534360    8d 8d b8 fb ff ff                                lea     ecx, [ebp-448h]
  0x00534366    e9 b5 20 fe ff                                   jmp     loc_516420    ; code_refs=[0x00516420]

loc_53436B: ; preds= succs=loc_516430
  0x0053436B    8d 8d ec fb ff ff                                lea     ecx, [ebp-414h]
  0x00534371    e9 ba 20 fe ff                                   jmp     loc_516430    ; code_refs=[0x00516430]

loc_534376: ; preds= succs=loc_516440
  0x00534376    8d 8d ac fb ff ff                                lea     ecx, [ebp-454h]
  0x0053437C    e9 bf 20 fe ff                                   jmp     loc_516440    ; code_refs=[0x00516440]

loc_534381: ; preds= succs=loc_516450
  0x00534381    8d 8d a4 fb ff ff                                lea     ecx, [ebp-45Ch]
  0x00534387    e9 c4 20 fe ff                                   jmp     loc_516450    ; code_refs=[0x00516450]

loc_53438C: ; preds= succs=loc_516440
  0x0053438C    8d 8d c4 fb ff ff                                lea     ecx, [ebp-43Ch]
  0x00534392    e9 a9 20 fe ff                                   jmp     loc_516440    ; code_refs=[0x00516440]

loc_534397: ; preds= succs=loc_516450
  0x00534397    8d 8d e4 fb ff ff                                lea     ecx, [ebp-41Ch]
  0x0053439D    e9 ae 20 fe ff                                   jmp     loc_516450    ; code_refs=[0x00516450]

loc_5343A2: ; preds= succs=loc_52E5C6
  0x005343A2    8b 54 24 08                                      mov     edx, [esp+arg_4]
  0x005343A6    8d 82 9c fb ff ff                                lea     eax, [edx-464h]
  0x005343AC    8b 8a 98 fb ff ff                                mov     ecx, [edx-468h]
  0x005343B2    33 c8                                            xor     ecx, eax
  0x005343B4    e8 e7 a0 ff ff                                   call    sub_52E4A0    ; code_refs=[0x0052E4A0]
  0x005343B9    83 c0 10                                         add     eax, 10h
  0x005343BC    8b 4a fc                                         mov     ecx, [edx-4]
  0x005343BF    33 c8                                            xor     ecx, eax
  0x005343C1    e8 da a0 ff ff                                   call    sub_52E4A0    ; code_refs=[0x0052E4A0]
  0x005343C6    b8 dc bb 55 00                                   mov     eax, offset stru_55BBDC    ; data_refs=[0x0055BBDC]
  0x005343CB    e9 f6 a1 ff ff                                   jmp     __CxxFrameHandler3    ; code_refs=[0x0052E5C6]
; END_FUNC 0x00516500 sub_516500


; ======================================================================================================================
; FUNC 0x00517670 sub_517670 size=179 segment=.text
; STRINGS:
;   0x00564490 'N'
;   0x0054926C 'CursorManager.cpp'
;   0x00558B9C '"'
; ----------------------------------------------------------------------------------------------------------------------

loc_517670: ; preds= succs=loc_5176BD,loc_5176C6
  0x00517670    6a ff                                            push    0FFFFFFFFh
  0x00517672    68 96 12 53 00                                   push    offset SEH_4D7670    ; data_refs=[0x00531296]
  0x00517677    64 a1 00 00 00 00                                mov     eax, large fs:0
  0x0051767D    50                                               push    eax
  0x0051767E    51                                               push    ecx
  0x0051767F    56                                               push    esi
  0x00517680    a1 90 44 56 00                                   mov     eax, dword_564490    ; data_refs=[0x00564490]
  0x00517685    33 c4                                            xor     eax, esp
  0x00517687    50                                               push    eax
  0x00517688    8d 44 24 0c                                      lea     eax, [esp+18h+var_C]
  0x0051768C    64 a3 00 00 00 00                                mov     large fs:0, eax
  0x00517692    8b f1                                            mov     esi, ecx
  0x00517694    ba 0a 00 00 00                                   mov     edx, 0Ah
  0x00517699    b9 6c 92 54 00                                   mov     ecx, offset aCursormanagerC; "CursorManager.cpp"    ; data_refs=[0x0054926C]
  0x0051769E    e8 ad 37 01 00                                   call    sub_52AE50    ; code_refs=[0x0052AE50]
  0x005176A3    6a 24                                            push    24h ; '$'; Size
  0x005176A5    e8 86 44 01 00                                   call    sub_52BB30    ; code_refs=[0x0052BB30]
  0x005176AA    83 c4 04                                         add     esp, 4
  0x005176AD    89 44 24 08                                      mov     [esp+18h+var_10], eax
  0x005176B1    c7 44 24 14 00 00 00 00                          mov     [esp+18h+var_4], 0
  0x005176B9    85 c0                                            test    eax, eax
  0x005176BB    74 09                                            jz      short loc_5176C6    ; code_refs=[0x005176C6]

loc_5176BD: ; preds=loc_517670 succs=loc_5176C8
  0x005176BD    8b c8                                            mov     ecx, eax
  0x005176BF    e8 2c 05 00 00                                   call    sub_517BF0    ; code_refs=[0x00517BF0]
  0x005176C4    eb 02                                            jmp     short loc_5176C8    ; code_refs=[0x005176C8]

loc_5176C6: ; preds=loc_517670 succs=loc_5176C8
  0x005176C6    33 c0                                            xor     eax, eax

loc_5176C8: ; preds=loc_5176BD,loc_5176C6 succs=loc_5176FB,loc_517704
  0x005176C8    ba 0b 00 00 00                                   mov     edx, 0Bh
  0x005176CD    b9 6c 92 54 00                                   mov     ecx, offset aCursormanagerC; "CursorManager.cpp"    ; data_refs=[0x0054926C]
  0x005176D2    c7 44 24 14 ff ff ff ff                          mov     [esp+18h+var_4], 0FFFFFFFFh
  0x005176DA    89 06                                            mov     [esi], eax
  0x005176DC    e8 6f 37 01 00                                   call    sub_52AE50    ; code_refs=[0x0052AE50]
  0x005176E1    6a 20                                            push    20h ; ' '; Size
  0x005176E3    e8 48 44 01 00                                   call    sub_52BB30    ; code_refs=[0x0052BB30]
  0x005176E8    83 c4 04                                         add     esp, 4
  0x005176EB    89 44 24 08                                      mov     [esp+18h+var_10], eax
  0x005176EF    c7 44 24 14 01 00 00 00                          mov     [esp+18h+var_4], 1
  0x005176F7    85 c0                                            test    eax, eax
  0x005176F9    74 09                                            jz      short loc_517704    ; code_refs=[0x00517704]

loc_5176FB: ; preds=loc_5176C8 succs=loc_517706
  0x005176FB    8b c8                                            mov     ecx, eax
  0x005176FD    e8 6e 01 00 00                                   call    sub_517870    ; code_refs=[0x00517870]
  0x00517702    eb 02                                            jmp     short loc_517706    ; code_refs=[0x00517706]

loc_517704: ; preds=loc_5176C8 succs=loc_517706
  0x00517704    33 c0                                            xor     eax, eax

loc_517706: ; preds=loc_5176FB,loc_517704 succs=
  0x00517706    89 46 04                                         mov     [esi+4], eax
  0x00517709    c7 46 08 00 00 00 00                             mov     dword ptr [esi+8], 0
  0x00517710    8b c6                                            mov     eax, esi
  0x00517712    8b 4c 24 0c                                      mov     ecx, [esp+18h+var_C]
  0x00517716    64 89 0d 00 00 00 00                             mov     large fs:0, ecx
  0x0051771D    59                                               pop     ecx
  0x0051771E    5e                                               pop     esi
  0x0051771F    83 c4 10                                         add     esp, 10h
  0x00517722    c3                                               retn

loc_531280:
  0x00531280    8b 45 f0                                         mov     eax, [ebp-10h]
  0x00531283    50                                               push    eax
  0x00531284    e8 27 a8 ff ff                                   call    sub_52BAB0    ; code_refs=[0x0052BAB0]
  0x00531289    59                                               pop     ecx
  0x0053128A    c3                                               retn

loc_53128B:
  0x0053128B    8b 45 f0                                         mov     eax, [ebp-10h]
  0x0053128E    50                                               push    eax
  0x0053128F    e8 1c a8 ff ff                                   call    sub_52BAB0    ; code_refs=[0x0052BAB0]
  0x00531294    59                                               pop     ecx
  0x00531295    c3                                               retn

loc_531296: ; preds= succs=loc_52E5C6
  0x00531296    8b 54 24 08                                      mov     edx, [esp+arg_4]
  0x0053129A    8d 42 f8                                         lea     eax, [edx-8]
  0x0053129D    8b 4a f4                                         mov     ecx, [edx-0Ch]
  0x005312A0    33 c8                                            xor     ecx, eax
  0x005312A2    e8 f9 d1 ff ff                                   call    sub_52E4A0    ; code_refs=[0x0052E4A0]
  0x005312A7    b8 9c 8b 55 00                                   mov     eax, offset stru_558B9C    ; data_refs=[0x00558B9C]
  0x005312AC    e9 15 d3 ff ff                                   jmp     __CxxFrameHandler3    ; code_refs=[0x0052E5C6]
; END_FUNC 0x00517670 sub_517670

